Disassembly Listing for i400hz3ph
Generated From:
/root/vcan/firmware/i400hz3ph.X/dist/default/production/i400hz3ph.X.production.elf
May 5, 2022 12:32:57 PM

---  /data01/build/bamboo/xml-data/build-dir/M32DEV-GMB34-JOB1/src/xc32-musl-stdlib/musl/musl-1.1.18/src/time/strftime.c
-----*  Optimizer-Generated Procedural Abstractions  *----------------------------------------------
9D0036FC  24C2FFDB   ADDIU V0, A2, -37
9D003700  27BDFFC8   ADDIU SP, SP, -56
9D003704  2C430056   SLTIU V1, V0, 86
9D003708  AFB30030   SW S3, 48(SP)
9D00370C  AFBF0034   SW RA, 52(SP)
9D003710  AFB2002C   SW S2, 44(SP)
9D003714  AFB10028   SW S1, 40(SP)
9D003718  AFB00024   SW S0, 36(SP)
9D00371C  1060019D   BEQ V1, ZERO, 0x9D003D94
9D003720  8FB30048   LW S3, 72(SP)
9D003724  00021880   SLL V1, V0, 2
9D003728  3C029D00   LUI V0, -25344
9D00372C  24423748   ADDIU V0, V0, 14152
9D003730  00431021   ADDU V0, V0, V1
9D003734  8C420000   LW V0, 0(V0)
9D003738  00808025   OR S0, A0, ZERO
9D00373C  00A08825   OR S1, A1, ZERO
9D003740  00400008   JR V0
9D003744  00E09025   OR S2, A3, ZERO
9D0038A0  3C040002   LUI A0, 2
9D0038A4  2484002B   ADDIU A0, A0, 43
9D0038A8  0F403E76   JAL __nl_langinfo_l
9D0038AC  02602825   OR A1, S3, ZERO
9D0038B0  10000004   BEQ ZERO, ZERO, 0x9D0038C4
9D0038B4  02002025   OR A0, S0, ZERO
9D0038B8  3C029D01   LUI V0, -25343
9D0038BC  2442230C   ADDIU V0, V0, 8972
9D0038C0  02002025   OR A0, S0, ZERO
9D0038C4  AFB30010   SW S3, 16(SP)
9D0038C8  02403825   OR A3, S2, ZERO
9D0038CC  00403025   OR A2, V0, ZERO
9D0038D0  0F402065   JAL __strftime_l
9D0038D4  24050064   ADDIU A1, ZERO, 100
9D0038D8  AE220000   SW V0, 0(S1)
9D0038DC  10000082   BEQ ZERO, ZERO, 0x9D003AE8
9D0038E0  0002800A   MOVZ S0, ZERO, V0
9D0038E4  8CE40018   LW A0, 24(A3)
9D0038E8  2C820007   SLTIU V0, A0, 7
9D0038EC  5040011E   BEQL V0, ZERO, 0x9D003D68
9D0038F0  3C109D01   LUI S0, -25343
9D0038F4  3C020002   LUI V0, 2
9D0038F8  00822021   ADDU A0, A0, V0
9D0038FC  0F403E76   JAL __nl_langinfo_l
9D003900  02602825   OR A1, S3, ZERO
9D003904  10000108   BEQ ZERO, ZERO, 0x9D003D28
9D003908  00408025   OR S0, V0, ZERO
9D00390C  8CE40018   LW A0, 24(A3)
9D003910  2C820007   SLTIU V0, A0, 7
9D003914  50400114   BEQL V0, ZERO, 0x9D003D68
9D003918  3C109D01   LUI S0, -25343
9D00391C  3C020002   LUI V0, 2
9D003920  1000FFF5   BEQ ZERO, ZERO, 0x9D0038F8
9D003924  24420007   ADDIU V0, V0, 7
9D003928  8CE40010   LW A0, 16(A3)
9D00392C  2C82000C   SLTIU V0, A0, 12
9D003930  5040010D   BEQL V0, ZERO, 0x9D003D68
9D003934  3C109D01   LUI S0, -25343
9D003938  3C020002   LUI V0, 2
9D00393C  1000FFEE   BEQ ZERO, ZERO, 0x9D0038F8
9D003940  2442000E   ADDIU V0, V0, 14
9D003944  8CE40010   LW A0, 16(A3)
9D003948  2C82000C   SLTIU V0, A0, 12
9D00394C  50400106   BEQL V0, ZERO, 0x9D003D68
9D003950  3C109D01   LUI S0, -25343
9D003954  3C020002   LUI V0, 2
9D003958  1000FFE7   BEQ ZERO, ZERO, 0x9D0038F8
9D00395C  2442001A   ADDIU V0, V0, 26
9D003960  8CE20014   LW V0, 20(A3)
9D003964  24060064   ADDIU A2, ZERO, 100
9D003968  00003825   OR A3, ZERO, ZERO
9D00396C  2444076C   ADDIU A0, V0, 1900
9D003970  00022FC3   SRA A1, V0, 31
9D003974  0082102B   SLTU V0, A0, V0
9D003978  0F4017EA   JAL __divdi3
9D00397C  00452821   ADDU A1, V0, A1
9D003980  00404025   OR T0, V0, ZERO
9D003984  00604825   OR T1, V1, ZERO
9D003988  10000045   BEQ ZERO, ZERO, 0x9D003AA0
9D00398C  24070002   ADDIU A3, ZERO, 2
9D003990  8CE8000C   LW T0, 12(A3)
9D003994  1000FFFC   BEQ ZERO, ZERO, 0x9D003988
9D003998  00084FC3   SRA T1, T0, 31
9D00399C  8CE7000C   LW A3, 12(A3)
9D0039A0  3C069D01   LUI A2, -25343
9D0039A4  24C62328   ADDIU A2, A2, 9000
9D0039A8  0F404DD0   JAL snprintf
9D0039AC  24050064   ADDIU A1, ZERO, 100
9D0039B0  1000004D   BEQ ZERO, ZERO, 0x9D003AE8
9D0039B4  AE220000   SW V0, 0(S1)
9D0039B8  8CEA0014   LW T2, 20(A3)
9D0039BC  8CE2001C   LW V0, 28(A3)
9D0039C0  00C06025   OR T4, A2, ZERO
9D0039C4  2548076C   ADDIU T0, T2, 1900
9D0039C8  000A5FC3   SRA T3, T2, 31
9D0039CC  010A482B   SLTU T1, T0, T2
9D0039D0  28430003   SLTI V1, V0, 3
9D0039D4  10600013   BEQ V1, ZERO, 0x9D003A24
9D0039D8  012B4821   ADDU T1, T1, T3
9D0039DC  0F403B3E   JAL week_num
9D0039E0  00E02025   OR A0, A3, ZERO
9D0039E4  24030001   ADDIU V1, ZERO, 1
9D0039E8  10430005   BEQ V0, V1, 0x9D003A00
9D0039EC  24020067   ADDIU V0, ZERO, 103
9D0039F0  2548076B   ADDIU T0, T2, 1899
9D0039F4  010A482B   SLTU T1, T0, T2
9D0039F8  012B4821   ADDU T1, T1, T3
9D0039FC  24020067   ADDIU V0, ZERO, 103
9D003A00  15820027   BNE T4, V0, 0x9D003AA0
9D003A04  24070004   ADDIU A3, ZERO, 4
9D003A08  24060064   ADDIU A2, ZERO, 100
9D003A0C  00003825   OR A3, ZERO, ZERO
9D003A10  01002025   OR A0, T0, ZERO
9D003A14  0F4016D8   JAL __moddi3
9D003A18  01202825   OR A1, T1, ZERO
9D003A1C  1000FFD9   BEQ ZERO, ZERO, 0x9D003984
9D003A20  00404025   OR T0, V0, ZERO
9D003A24  28420169   SLTI V0, V0, 361
9D003A28  1440FFF5   BNE V0, ZERO, 0x9D003A00
9D003A2C  24020067   ADDIU V0, ZERO, 103
9D003A30  0F403B3E   JAL week_num
9D003A34  00E02025   OR A0, A3, ZERO
9D003A38  24030001   ADDIU V1, ZERO, 1
9D003A3C  1443FFF0   BNE V0, V1, 0x9D003A00
9D003A40  24020067   ADDIU V0, ZERO, 103
9D003A44  1000FFEB   BEQ ZERO, ZERO, 0x9D0039F4
9D003A48  2548076D   ADDIU T0, T2, 1901
9D003A4C  1000FFD1   BEQ ZERO, ZERO, 0x9D003994
9D003A50  8CE80008   LW T0, 8(A3)
9D003A54  8CE80008   LW T0, 8(A3)
9D003A58  00084FC3   SRA T1, T0, 31
9D003A5C  01091025   OR V0, T0, T1
9D003A60  504000BA   BEQL V0, ZERO, 0x9D003D4C
9D003A64  24070002   ADDIU A3, ZERO, 2
9D003A68  5520000D   BNEL T1, ZERO, 0x9D003AA0
9D003A6C  24070002   ADDIU A3, ZERO, 2
9D003A70  2D02000D   SLTIU V0, T0, 13
9D003A74  5440000A   BNEL V0, ZERO, 0x9D003AA0
9D003A78  24070002   ADDIU A3, ZERO, 2
9D003A7C  2504FFF4   ADDIU A0, T0, -12
9D003A80  0088482B   SLTU T1, A0, T0
9D003A84  2529FFFF   ADDIU T1, T1, -1
9D003A88  1000FFBF   BEQ ZERO, ZERO, 0x9D003988
9D003A8C  00804025   OR T0, A0, ZERO
9D003A90  8CE8001C   LW T0, 28(A3)
9D003A94  24070003   ADDIU A3, ZERO, 3
9D003A98  25080001   ADDIU T0, T0, 1
9D003A9C  00084FC3   SRA T1, T0, 31
9D003AA0  3C069D01   LUI A2, -25343
9D003AA4  AFA80010   SW T0, 16(SP)
9D003AA8  AFA90014   SW T1, 20(SP)
9D003AAC  24C62340   ADDIU A2, A2, 9024
9D003AB0  24050064   ADDIU A1, ZERO, 100
9D003AB4  0F404DD0   JAL snprintf
9D003AB8  02002025   OR A0, S0, ZERO
9D003ABC  1000000A   BEQ ZERO, ZERO, 0x9D003AE8
9D003AC0  AE220000   SW V0, 0(S1)
9D003AC4  8CE80010   LW T0, 16(A3)
9D003AC8  1000FFB2   BEQ ZERO, ZERO, 0x9D003994
9D003ACC  25080001   ADDIU T0, T0, 1
9D003AD0  1000FFB0   BEQ ZERO, ZERO, 0x9D003994
9D003AD4  8CE80004   LW T0, 4(A3)
9D003AD8  24020001   ADDIU V0, ZERO, 1
9D003ADC  3C109D01   LUI S0, -25343
9D003AE0  ACA20000   SW V0, 0(A1)
9D003AE4  26102318   ADDIU S0, S0, 8984
9D003AE8  8FBF0034   LW RA, 52(SP)
9D003AEC  02001025   OR V0, S0, ZERO
9D003AF0  8FB30030   LW S3, 48(SP)
9D003AF4  8FB2002C   LW S2, 44(SP)
9D003AF8  8FB10028   LW S1, 40(SP)
9D003AFC  8FB00024   LW S0, 36(SP)
9D003B00  03E00008   JR RA
9D003B04  27BD0038   ADDIU SP, SP, 56
9D003B08  8CE20008   LW V0, 8(A3)
9D003B0C  2842000C   SLTI V0, V0, 12
9D003B10  10400093   BEQ V0, ZERO, 0x9D003D60
9D003B14  3C040002   LUI A0, 2
9D003B18  1000FF78   BEQ ZERO, ZERO, 0x9D0038FC
9D003B1C  24840026   ADDIU A0, A0, 38
9D003B20  3C029D01   LUI V0, -25343
9D003B24  1000FF66   BEQ ZERO, ZERO, 0x9D0038C0
9D003B28  244222F8   ADDIU V0, V0, 8952
9D003B2C  0F403B80   JAL __tm_to_secs
9D003B30  00E02025   OR A0, A3, ZERO
9D003B34  8E480024   LW T0, 36(S2)
9D003B38  00084FC3   SRA T1, T0, 31
9D003B3C  00484023   SUBU T0, V0, T0
9D003B40  0048102B   SLTU V0, V0, T0
9D003B44  00691823   SUBU V1, V1, T1
9D003B48  00624823   SUBU T1, V1, V0
9D003B4C  1000FFD4   BEQ ZERO, ZERO, 0x9D003AA0
9D003B50  24070001   ADDIU A3, ZERO, 1
9D003B54  1000FF8F   BEQ ZERO, ZERO, 0x9D003994
9D003B58  8CE80000   LW T0, 0(A3)
9D003B5C  24020001   ADDIU V0, ZERO, 1
9D003B60  3C109D01   LUI S0, -25343
9D003B64  ACA20000   SW V0, 0(A1)
9D003B68  1000FFDF   BEQ ZERO, ZERO, 0x9D003AE8
9D003B6C  2610231C   ADDIU S0, S0, 8988
9D003B70  3C029D01   LUI V0, -25343
9D003B74  1000FF52   BEQ ZERO, ZERO, 0x9D0038C0
9D003B78  24422300   ADDIU V0, V0, 8960
9D003B7C  8CE80018   LW T0, 24(A3)
9D003B80  51000075   BEQL T0, ZERO, 0x9D003D58
9D003B84  24070001   ADDIU A3, ZERO, 1
9D003B88  1000FFF0   BEQ ZERO, ZERO, 0x9D003B4C
9D003B8C  00084FC3   SRA T1, T0, 31
9D003B90  8CE8001C   LW T0, 28(A3)
9D003B94  8CE20018   LW V0, 24(A3)
9D003B98  25080007   ADDIU T0, T0, 7
9D003B9C  01021023   SUBU V0, T0, V0
9D003BA0  24080007   ADDIU T0, ZERO, 7
9D003BA4  0048001B   DIVU V0, T0
9D003BA8  010001F4   TEQ T0, ZERO
9D003BAC  00004825   OR T1, ZERO, ZERO
9D003BB0  1000FF75   BEQ ZERO, ZERO, 0x9D003988
9D003BB4  00004012   MFLO T0
9D003BB8  8CE40018   LW A0, 24(A3)
9D003BBC  24080007   ADDIU T0, ZERO, 7
9D003BC0  8CE2001C   LW V0, 28(A3)
9D003BC4  24840006   ADDIU A0, A0, 6
9D003BC8  0088001B   DIVU A0, T0
9D003BCC  010001F4   TEQ T0, ZERO
9D003BD0  24430007   ADDIU V1, V0, 7
9D003BD4  00001010   MFHI V0
9D003BD8  1000FFF2   BEQ ZERO, ZERO, 0x9D003BA4
9D003BDC  00621023   SUBU V0, V1, V0
9D003BE0  0F403B3E   JAL week_num
9D003BE4  00E02025   OR A0, A3, ZERO
9D003BE8  00404025   OR T0, V0, ZERO
9D003BEC  1000FF66   BEQ ZERO, ZERO, 0x9D003988
9D003BF0  00024FC3   SRA T1, V0, 31
9D003BF4  1000FFE4   BEQ ZERO, ZERO, 0x9D003B88
9D003BF8  8CE80018   LW T0, 24(A3)
9D003BFC  3C040002   LUI A0, 2
9D003C00  1000FF29   BEQ ZERO, ZERO, 0x9D0038A8
9D003C04  2484002A   ADDIU A0, A0, 42
9D003C08  8CE20014   LW V0, 20(A3)
9D003C0C  24060064   ADDIU A2, ZERO, 100
9D003C10  00003825   OR A3, ZERO, ZERO
9D003C14  2444076C   ADDIU A0, V0, 1900
9D003C18  00022FC3   SRA A1, V0, 31
9D003C1C  0082102B   SLTU V0, A0, V0
9D003C20  0F4016D8   JAL __moddi3
9D003C24  00452821   ADDU A1, V0, A1
9D003C28  000327C3   SRA A0, V1, 31
9D003C2C  00824026   XOR T0, A0, V0
9D003C30  00834826   XOR T1, A0, V1
9D003C34  01041023   SUBU V0, T0, A0
9D003C38  0102182B   SLTU V1, T0, V0
9D003C3C  01244823   SUBU T1, T1, A0
9D003C40  00404025   OR T0, V0, ZERO
9D003C44  1000FF50   BEQ ZERO, ZERO, 0x9D003988
9D003C48  01234823   SUBU T1, T1, V1
9D003C4C  8CE20014   LW V0, 20(A3)
9D003C50  2443076C   ADDIU V1, V0, 1900
9D003C54  000227C3   SRA A0, V0, 31
9D003C58  0062102B   SLTU V0, V1, V0
9D003C5C  00441021   ADDU V0, V0, A0
9D003C60  00604025   OR T0, V1, ZERO
9D003C64  1C400006   BGTZ V0, 0x9D003C80
9D003C68  00404825   OR T1, V0, ZERO
9D003C6C  1440FF8C   BNE V0, ZERO, 0x9D003AA0
9D003C70  24070004   ADDIU A3, ZERO, 4
9D003C74  2C642710   SLTIU A0, V1, 10000
9D003C78  1480FF8A   BNE A0, ZERO, 0x9D003AA4
9D003C7C  3C069D01   LUI A2, -25343
9D003C80  3C069D01   LUI A2, -25343
9D003C84  AFA30010   SW V1, 16(SP)
9D003C88  AFA20014   SW V0, 20(SP)
9D003C8C  24C6232C   ADDIU A2, A2, 9004
9D003C90  24050064   ADDIU A1, ZERO, 100
9D003C94  0F404DD0   JAL snprintf
9D003C98  02002025   OR A0, S0, ZERO
9D003C9C  1000FF92   BEQ ZERO, ZERO, 0x9D003AE8
9D003CA0  AE220000   SW V0, 0(S1)
9D003CA4  8CE20020   LW V0, 32(A3)
9D003CA8  04430005   BGEZL V0, 0x9D003CC0
9D003CAC  8CE70024   LW A3, 36(A3)
9D003CB0  3C109D01   LUI S0, -25343
9D003CB4  AE200000   SW ZERO, 0(S1)
9D003CB8  1000FF8B   BEQ ZERO, ZERO, 0x9D003AE8
9D003CBC  26102320   ADDIU S0, S0, 8992
9D003CC0  24040E10   ADDIU A0, ZERO, 3600
9D003CC4  00E4001A   DIV A3, A0
9D003CC8  008001F4   TEQ A0, ZERO
9D003CCC  00003812   MFLO A3
9D003CD0  AFA70018   SW A3, 24(SP)
9D003CD4  0F404F42   JAL abs
9D003CD8  00002010   MFHI A0
9D003CDC  2403003C   ADDIU V1, ZERO, 60
9D003CE0  0043001A   DIV V0, V1
9D003CE4  006001F4   TEQ V1, ZERO
9D003CE8  8FA70018   LW A3, 24(SP)
9D003CEC  3C069D01   LUI A2, -25343
9D003CF0  24C62334   ADDIU A2, A2, 9012
9D003CF4  24050064   ADDIU A1, ZERO, 100
9D003CF8  02002025   OR A0, S0, ZERO
9D003CFC  00001012   MFLO V0
9D003D00  0F404DD0   JAL snprintf
9D003D04  AFA20010   SW V0, 16(SP)
9D003D08  1000FF77   BEQ ZERO, ZERO, 0x9D003AE8
9D003D0C  AE220000   SW V0, 0(S1)
9D003D10  8CE20020   LW V0, 32(A3)
9D003D14  0442FFE7   BLTZL V0, 0x9D003CB4
9D003D18  3C109D01   LUI S0, -25343
9D003D1C  0F404D8D   JAL __tm_to_tzname
9D003D20  00E02025   OR A0, A3, ZERO
9D003D24  00408025   OR S0, V0, ZERO
9D003D28  0F4034B6   JAL strlen
9D003D2C  02002025   OR A0, S0, ZERO
9D003D30  1000FF6D   BEQ ZERO, ZERO, 0x9D003AE8
9D003D34  AE220000   SW V0, 0(S1)
9D003D38  24020001   ADDIU V0, ZERO, 1
9D003D3C  3C109D01   LUI S0, -25343
9D003D40  ACA20000   SW V0, 0(A1)
9D003D44  1000FF68   BEQ ZERO, ZERO, 0x9D003AE8
9D003D48  26102324   ADDIU S0, S0, 8996
9D003D4C  2408000C   ADDIU T0, ZERO, 12
9D003D50  1000FF53   BEQ ZERO, ZERO, 0x9D003AA0
9D003D54  00004825   OR T1, ZERO, ZERO
9D003D58  1000FFFD   BEQ ZERO, ZERO, 0x9D003D50
9D003D5C  24080007   ADDIU T0, ZERO, 7
9D003D60  1000FEE6   BEQ ZERO, ZERO, 0x9D0038FC
9D003D64  24840027   ADDIU A0, A0, 39
9D003D68  1000FFEF   BEQ ZERO, ZERO, 0x9D003D28
9D003D6C  261022E8   ADDIU S0, S0, 8936
9D003D70  3C040002   LUI A0, 2
9D003D74  1000FECC   BEQ ZERO, ZERO, 0x9D0038A8
9D003D78  24840028   ADDIU A0, A0, 40
9D003D7C  3C040002   LUI A0, 2
9D003D80  1000FEC9   BEQ ZERO, ZERO, 0x9D0038A8
9D003D84  24840029   ADDIU A0, A0, 41
9D003D88  3C029D01   LUI V0, -25343
9D003D8C  1000FECC   BEQ ZERO, ZERO, 0x9D0038C0
9D003D90  244222EC   ADDIU V0, V0, 8940
9D003D94  1000FF54   BEQ ZERO, ZERO, 0x9D003AE8
9D003D98  00008025   OR S0, ZERO, ZERO
9D008194  27BDFF50   ADDIU SP, SP, -176
9D008198  AFB30094   SW S3, 148(SP)
9D00819C  3C130040   LUI S3, 64
9D0081A0  AFB600A0   SW S6, 160(SP)
9D0081A4  AFB40098   SW S4, 152(SP)
9D0081A8  AFB20090   SW S2, 144(SP)
9D0081AC  AFB1008C   SW S1, 140(SP)
9D0081B0  AFB00088   SW S0, 136(SP)
9D0081B4  AFBF00AC   SW RA, 172(SP)
9D0081B8  AFBE00A8   SW FP, 168(SP)
9D0081BC  AFB700A4   SW S7, 164(SP)
9D0081C0  AFB5009C   SW S5, 156(SP)
9D0081C4  00809025   OR S2, A0, ZERO
9D0081C8  00A0B025   OR S6, A1, ZERO
9D0081CC  00C08825   OR S1, A2, ZERO
9D0081D0  00E0A025   OR S4, A3, ZERO
9D0081D4  00008025   OR S0, ZERO, ZERO
9D0081D8  26730019   ADDIU S3, S3, 25
9D0081DC  0216102B   SLTU V0, S0, S6
9D0081E0  54400005   BNEL V0, ZERO, strftime_l
9D0081E4  82220000   LB V0, 0(S1)
9D0081E8  16C00050   BNE S6, ZERO, strftime_l
9D0081EC  00000000   NOP
9D0081F0  10000005   BEQ ZERO, ZERO, strftime_l
9D0081F4  00008025   OR S0, ZERO, ZERO
9D0081F8  14400010   BNE V0, ZERO, strftime_l
9D0081FC  24030025   ADDIU V1, ZERO, 37
9D008200  02509021   ADDU S2, S2, S0
9D008204  A2400000   SB ZERO, 0(S2)
9D008208  8FBF00AC   LW RA, 172(SP)
9D00820C  02001025   OR V0, S0, ZERO
9D008210  8FBE00A8   LW FP, 168(SP)
9D008214  8FB700A4   LW S7, 164(SP)
9D008218  8FB600A0   LW S6, 160(SP)
9D00821C  8FB5009C   LW S5, 156(SP)
9D008220  8FB40098   LW S4, 152(SP)
9D008224  8FB30094   LW S3, 148(SP)
9D008228  8FB20090   LW S2, 144(SP)
9D00822C  8FB1008C   LW S1, 140(SP)
9D008230  8FB00088   LW S0, 136(SP)
9D008234  03E00008   JR RA
9D008238  27BD00B0   ADDIU SP, SP, 176
9D00823C  50430006   BEQL V0, V1, strftime_l
9D008240  823E0001   LB FP, 1(S1)
9D008244  02501821   ADDU V1, S2, S0
9D008248  A0620000   SB V0, 0(V1)
9D00824C  26100001   ADDIU S0, S0, 1
9D008250  1000FFE2   BEQ ZERO, ZERO, strftime_l
9D008254  26310001   ADDIU S1, S1, 1
9D008258  2402002B   ADDIU V0, ZERO, 43
9D00825C  13C20002   BEQ FP, V0, strftime_l
9D008260  26370002   ADDIU S7, S1, 2
9D008264  26370001   ADDIU S7, S1, 1
9D008268  02E02025   OR A0, S7, ZERO
9D00826C  2406000A   ADDIU A2, ZERO, 10
9D008270  0F404CFF   JAL strtoul
9D008274  27A5007C   ADDIU A1, SP, 124
9D008278  8FB1007C   LW S1, 124(SP)
9D00827C  0040A825   OR S5, V0, ZERO
9D008280  82230000   LB V1, 0(S1)
9D008284  2462FFBD   ADDIU V0, V1, -67
9D008288  304200FF   ANDI V0, V0, 255
9D00828C  2C440017   SLTIU A0, V0, 23
9D008290  5080003A   BEQL A0, ZERO, strftime_l
9D008294  0000A825   OR S5, ZERO, ZERO
9D008298  00531006   SRLV V0, S3, V0
9D00829C  7C420000   EXT V0, V0, 0, 1
9D0082A0  1440002B   BNE V0, ZERO, strftime_l
9D0082A4  00000000   NOP
9D0082A8  1000002D   BEQ ZERO, ZERO, strftime_l
9D0082AC  0000A825   OR S5, ZERO, ZERO
9D0082B0  2484FFFF   ADDIU A0, A0, -1
9D0082B4  24420001   ADDIU V0, V0, 1
9D0082B8  1000003D   BEQ ZERO, ZERO, strftime_l
9D0082BC  AFA40080   SW A0, 128(SP)
9D0082C0  28A5F894   SLTI A1, A1, -1900
9D0082C4  50A0004F   BEQL A1, ZERO, strftime_l
9D0082C8  02A01825   OR V1, S5, ZERO
9D0082CC  2405002D   ADDIU A1, ZERO, 45
9D0082D0  26100001   ADDIU S0, S0, 1
9D0082D4  1000004B   BEQ ZERO, ZERO, strftime_l
9D0082D8  A0C50000   SB A1, 0(A2)
9D0082DC  A0A60000   SB A2, 0(A1)
9D0082E0  26100001   ADDIU S0, S0, 1
9D0082E4  00702823   SUBU A1, V1, S0
9D0082E8  0085282B   SLTU A1, A0, A1
9D0082EC  10A00003   BEQ A1, ZERO, strftime_l
9D0082F0  0216282B   SLTU A1, S0, S6
9D0082F4  14A0FFF9   BNE A1, ZERO, strftime_l
9D0082F8  02502821   ADDU A1, S2, S0
9D0082FC  8FA30080   LW V1, 128(SP)
9D008300  02D02023   SUBU A0, S6, S0
9D008304  0083182B   SLTU V1, A0, V1
9D008308  54600001   BNEL V1, ZERO, strftime_l
9D00830C  AFA40080   SW A0, 128(SP)
9D008310  8FA60080   LW A2, 128(SP)
9D008314  02502021   ADDU A0, S2, S0
9D008318  0F40345C   JAL memcpy
9D00831C  00402825   OR A1, V0, ZERO
9D008320  8FA20080   LW V0, 128(SP)
9D008324  1000FFCA   BEQ ZERO, ZERO, strftime_l
9D008328  02028021   ADDU S0, S0, V0
9D00832C  52160001   BEQL S0, S6, strftime_l
9D008330  2610FFFF   ADDIU S0, S0, -1
9D008334  02508021   ADDU S0, S2, S0
9D008338  1000FFAD   BEQ ZERO, ZERO, strftime_l
9D00833C  A2000000   SB ZERO, 0(S0)
9D008340  56C0FFFD   BNEL S6, ZERO, strftime_l
9D008344  02508021   ADDU S0, S2, S0
9D008348  1000FFAF   BEQ ZERO, ZERO, strftime_l
9D00834C  00008025   OR S0, ZERO, ZERO
9D008350  16A0000B   BNE S5, ZERO, strftime_l
9D008354  8FA200C0   LW V0, 192(SP)
9D008358  0237A826   XOR S5, S1, S7
9D00835C  0015A82B   SLTU S5, ZERO, S5
9D008360  24020045   ADDIU V0, ZERO, 69
9D008364  50620005   BEQL V1, V0, strftime_l
9D008368  26310001   ADDIU S1, S1, 1
9D00836C  2402004F   ADDIU V0, ZERO, 79
9D008370  14620003   BNE V1, V0, strftime_l
9D008374  8FA200C0   LW V0, 192(SP)
9D008378  26310001   ADDIU S1, S1, 1
9D00837C  8FA200C0   LW V0, 192(SP)
9D008380  82260000   LB A2, 0(S1)
9D008384  02803825   OR A3, S4, ZERO
9D008388  AFA20010   SW V0, 16(SP)
9D00838C  27A50080   ADDIU A1, SP, 128
9D008390  0F400DBF   JAL __strftime_fmt_1
9D008394  27A40018   ADDIU A0, SP, 24
9D008398  1040FFE9   BEQ V0, ZERO, strftime_l
9D00839C  00000000   NOP
9D0083A0  12A0FFD7   BEQ S5, ZERO, strftime_l
9D0083A4  8FA30080   LW V1, 128(SP)
9D0083A8  2406FFFD   ADDIU A2, ZERO, -3
9D0083AC  24070030   ADDIU A3, ZERO, 48
9D0083B0  80450000   LB A1, 0(V0)
9D0083B4  24A3FFD5   ADDIU V1, A1, -43
9D0083B8  00661824   AND V1, V1, A2
9D0083BC  306300FF   ANDI V1, V1, 255
9D0083C0  1060FFBB   BEQ V1, ZERO, strftime_l
9D0083C4  8FA40080   LW A0, 128(SP)
9D0083C8  54A70005   BNEL A1, A3, strftime_l
9D0083CC  2407002B   ADDIU A3, ZERO, 43
9D0083D0  80430001   LB V1, 1(V0)
9D0083D4  5460FFB7   BNEL V1, ZERO, strftime_l
9D0083D8  2484FFFF   ADDIU A0, A0, -1
9D0083DC  2407002B   ADDIU A3, ZERO, 43
9D0083E0  26A3FFFF   ADDIU V1, S5, -1
9D0083E4  8E850014   LW A1, 20(S4)
9D0083E8  17C7FFB5   BNE FP, A3, strftime_l
9D0083EC  02503021   ADDU A2, S2, S0
9D0083F0  28A71FA4   SLTI A3, A1, 8100
9D0083F4  14E0FFB3   BNE A3, ZERO, strftime_l
9D0083F8  28A5F894   SLTI A1, A1, -1900
9D0083FC  26100001   ADDIU S0, S0, 1
9D008400  A0DE0000   SB FP, 0(A2)
9D008404  02031821   ADDU V1, S0, V1
9D008408  1000FFB6   BEQ ZERO, ZERO, strftime_l
9D00840C  24060030   ADDIU A2, ZERO, 48
9D00ECF8  8C820018   LW V0, 24(A0)
9D00ECFC  24030007   ADDIU V1, ZERO, 7
9D00ED00  8C87001C   LW A3, 28(A0)
9D00ED04  24450006   ADDIU A1, V0, 6
9D00ED08  00A3001B   DIVU A1, V1
9D00ED0C  006001F4   TEQ V1, ZERO
9D00ED10  24E60007   ADDIU A2, A3, 7
9D00ED14  00471023   SUBU V0, V0, A3
9D00ED18  24470171   ADDIU A3, V0, 369
9D00ED1C  27BDFFE8   ADDIU SP, SP, -24
9D00ED20  00002810   MFHI A1
9D00ED24  00C53023   SUBU A2, A2, A1
9D00ED28  00C3001B   DIVU A2, V1
9D00ED2C  006001F4   TEQ V1, ZERO
9D00ED30  00002812   MFLO A1
9D00ED34  00E3001B   DIVU A3, V1
9D00ED38  006001F4   TEQ V1, ZERO
9D00ED3C  00003810   MFHI A3
9D00ED40  2CE70003   SLTIU A3, A3, 3
9D00ED44  10E00014   BEQ A3, ZERO, week_num
9D00ED48  AFBF0014   SW RA, 20(SP)
9D00ED4C  24A50001   ADDIU A1, A1, 1
9D00ED50  24030035   ADDIU V1, ZERO, 53
9D00ED54  54A30027   BNEL A1, V1, week_num
9D00ED58  8FBF0014   LW RA, 20(SP)
9D00ED5C  24420173   ADDIU V0, V0, 371
9D00ED60  24030007   ADDIU V1, ZERO, 7
9D00ED64  0043001B   DIVU V0, V1
9D00ED68  006001F4   TEQ V1, ZERO
9D00ED6C  24030004   ADDIU V1, ZERO, 4
9D00ED70  00001010   MFHI V0
9D00ED74  1043001E   BEQ V0, V1, week_num
9D00ED78  24030003   ADDIU V1, ZERO, 3
9D00ED7C  5443001C   BNEL V0, V1, week_num
9D00ED80  24050001   ADDIU A1, ZERO, 1
9D00ED84  0F40499D   JAL is_leap
9D00ED88  8C840014   LW A0, 20(A0)
9D00ED8C  24030001   ADDIU V1, ZERO, 1
9D00ED90  10000017   BEQ ZERO, ZERO, week_num
9D00ED94  0062280A   MOVZ A1, V1, V0
9D00ED98  2CC60007   SLTIU A2, A2, 7
9D00ED9C  50C0FFED   BEQL A2, ZERO, week_num
9D00EDA0  24030035   ADDIU V1, ZERO, 53
9D00EDA4  24420006   ADDIU V0, V0, 6
9D00EDA8  0043001B   DIVU V0, V1
9D00EDAC  006001F4   TEQ V1, ZERO
9D00EDB0  24030004   ADDIU V1, ZERO, 4
9D00EDB4  00001010   MFHI V0
9D00EDB8  1043000D   BEQ V0, V1, week_num
9D00EDBC  24050035   ADDIU A1, ZERO, 53
9D00EDC0  24030005   ADDIU V1, ZERO, 5
9D00EDC4  1443000A   BNE V0, V1, week_num
9D00EDC8  24050034   ADDIU A1, ZERO, 52
9D00EDCC  8C820014   LW V0, 20(A0)
9D00EDD0  24040190   ADDIU A0, ZERO, 400
9D00EDD4  0044001A   DIV V0, A0
9D00EDDC  00002010   MFHI A0
9D00EDE0  0F40499D   JAL is_leap
9D00EDE8  0002282B   SLTU A1, ZERO, V0
9D00EDF0  8FBF0014   LW RA, 20(SP)
9D00EDF4  00A01025   OR V0, A1, ZERO
9D00EDF8  03E00008   JR RA
9D00EDFC  27BD0018   ADDIU SP, SP, 24
9D00EE00  27BDFFD0   ADDIU SP, SP, -48
9D012674  3C027FFF   LUI V0, 32767
9D012678  3442F894   ORI V0, V0, -1900
9D01267C  0082102A   SLT V0, A0, V0
9D012680  50400001   BEQL V0, ZERO, is_leap
9D012684  2484F830   ADDIU A0, A0, -2000
9D012688  2484076C   ADDIU A0, A0, 1900
9D01268C  30830003   ANDI V1, A0, 3
9D012690  1460000C   BNE V1, ZERO, is_leap
9D012694  00001025   OR V0, ZERO, ZERO
9D012698  24020064   ADDIU V0, ZERO, 100
9D01269C  0082001A   DIV A0, V0
9D0126A0  004001F4   TEQ V0, ZERO
9D0126A4  00001810   MFHI V1
9D0126A8  14600006   BNE V1, ZERO, is_leap
9D0126AC  24020001   ADDIU V0, ZERO, 1
9D0126B0  24020190   ADDIU V0, ZERO, 400
9D0126B4  0082001A   DIV A0, V0
9D0126B8  004001F4   TEQ V0, ZERO
9D0126BC  00001010   MFHI V0
9D0126C0  2C420001   SLTIU V0, V0, 1
9D0126C4  03E00008   JR RA
9D0126C8  00000000   NOP
9D01371C  3C028000   LUI V0, -32768
9D013720  8C422524   LW V0, 9508(V0)
9D013724  27BDFFE0   ADDIU SP, SP, -32
9D013728  AFBF001C   SW RA, 28(SP)
9D01372C  0F402065   JAL __strftime_l
9D013730  AFA20010   SW V0, 16(SP)
9D013734  8FBF001C   LW RA, 28(SP)
9D013738  03E00008   JR RA
9D01373C  27BD0020   ADDIU SP, SP, 32
---  /data01/build/bamboo/xml-data/build-dir/M32DEV-GMB34-JOB1/src/xc32-musl-stdlib/musl/musl-1.1.18/src/time/pic32m/__tz.c
-----*  Optimizer-Generated Procedural Abstractions  *----------------------------------------------
00000000  00000000   NOP
00000008  00000000   NOP
00000010  00000000   NOP
9D000000  27BDFFE0   ADDIU SP, SP, -32
9D000004  3C029D01   LUI V0, -25343
9D000008  24421D14   ADDIU V0, V0, 7444
9D00000C  AFB00018   SW S0, 24(SP)
9D000010  3C108000   LUI S0, -32768
9D000014  AFA20010   SW V0, 16(SP)
9D000018  8E02251C   LW V0, 9500(S0)
9D00001C  1440004C   BNE V0, ZERO, do_tzset
9D000020  AFBF001C   SW RA, 28(SP)
9D000024  3C038000   LUI V1, -32768
9D000028  8C622518   LW V0, 9496(V1)
9D00002C  2C440004   SLTIU A0, V0, 4
9D000030  1080000A   BEQ A0, ZERO, do_tzset
9D000034  8E04251C   LW A0, 9500(S0)
9D000038  00021040   SLL V0, V0, 1
9D00003C  2C440004   SLTIU A0, V0, 4
9D000040  24050004   ADDIU A1, ZERO, 4
9D000044  00A4100B   MOVN V0, A1, A0
9D000048  00402025   OR A0, V0, ZERO
9D00004C  0F401FBE   JAL malloc
9D000050  AC622518   SW V0, 9496(V1)
9D000054  AE02251C   SW V0, 9500(S0)
9D000058  8E04251C   LW A0, 9500(S0)
9D00005C  10800003   BEQ A0, ZERO, do_tzset
9D000060  8FA50010   LW A1, 16(SP)
9D000064  0F40345C   JAL memcpy
9D000068  24060004   ADDIU A2, ZERO, 4
9D00006C  3C098000   LUI T1, -32768
9D000070  27A50010   ADDIU A1, SP, 16
9D000074  0F40441C   JAL getname
9D000078  252421A8   ADDIU A0, T1, 8616
9D00007C  252921A8   ADDIU T1, T1, 8616
9D000080  3C0C8000   LUI T4, -32768
9D000084  27A40010   ADDIU A0, SP, 16
9D000088  0F40429C   JAL getoff
9D00008C  AD8921B0   SW T1, 8624(T4)
9D000090  3C098000   LUI T1, -32768
9D000094  3C0A8000   LUI T2, -32768
9D000098  27A50010   ADDIU A1, SP, 16
9D00009C  252421A0   ADDIU A0, T1, 8608
9D0000A0  0F40441C   JAL getname
9D0000A4  AD422520   SW V0, 9504(T2)
9D0000A8  812321A0   LB V1, 8608(T1)
9D0000AC  258C21B0   ADDIU T4, T4, 8624
9D0000B0  252221A0   ADDIU V0, T1, 8608
9D0000B4  AD820004   SW V0, 4(T4)
9D0000B8  3C028000   LUI V0, -32768
9D0000BC  1060002A   BEQ V1, ZERO, do_tzset
9D0000C0  3C0C8000   LUI T4, -32768
9D0000C4  24030001   ADDIU V1, ZERO, 1
9D0000C8  AC432504   SW V1, 9476(V0)
9D0000CC  8FA20010   LW V0, 16(SP)
9D0000D0  80420000   LB V0, 0(V0)
9D0000D4  2443FFD5   ADDIU V1, V0, -43
9D0000D8  306300FD   ANDI V1, V1, 253
9D0000DC  10600004   BEQ V1, ZERO, do_tzset
9D0000E0  2442FFD0   ADDIU V0, V0, -48
9D0000E4  2C42000A   SLTIU V0, V0, 10
9D0000E8  1040001D   BEQ V0, ZERO, do_tzset
9D0000EC  8D422520   LW V0, 9504(T2)
9D0000F0  0F40429C   JAL getoff
9D0000F4  27A40010   ADDIU A0, SP, 16
9D0000F8  AD82219C   SW V0, 8604(T4)
9D0000FC  8FA20010   LW V0, 16(SP)
9D000100  2403002C   ADDIU V1, ZERO, 44
9D000104  80440000   LB A0, 0(V0)
9D000108  14830009   BNE A0, V1, do_tzset
9D00010C  3C058000   LUI A1, -32768
9D000110  24420001   ADDIU V0, V0, 1
9D000114  24A52188   ADDIU A1, A1, 8584
9D000118  27A40010   ADDIU A0, SP, 16
9D00011C  0F404242   JAL getrule
9D000120  AFA20010   SW V0, 16(SP)
9D000124  8FA20010   LW V0, 16(SP)
9D000128  2403002C   ADDIU V1, ZERO, 44
9D00012C  80440000   LB A0, 0(V0)
9D000130  14830008   BNE A0, V1, do_tzset
9D000134  8FBF001C   LW RA, 28(SP)
9D000138  3C058000   LUI A1, -32768
9D00013C  24420001   ADDIU V0, V0, 1
9D000140  24A52174   ADDIU A1, A1, 8564
9D000144  27A40010   ADDIU A0, SP, 16
9D000148  0F404242   JAL getrule
9D00014C  AFA20010   SW V0, 16(SP)
9D000150  8FBF001C   LW RA, 28(SP)
9D000154  8FB00018   LW S0, 24(SP)
9D000158  03E00008   JR RA
9D00015C  27BD0020   ADDIU SP, SP, 32
9D000160  1000FFE5   BEQ ZERO, ZERO, do_tzset
9D000164  2442F1F0   ADDIU V0, V0, -3600
9D000168  AC402504   SW ZERO, 9476(V0)
9D00016C  1000FFE3   BEQ ZERO, ZERO, do_tzset
9D000170  AD80219C   SW ZERO, 8604(T4)
9D007C58  27BDFFC8   ADDIU SP, SP, -56
9D007C5C  AFB7002C   SW S7, 44(SP)
9D007C60  AFB60028   SW S6, 40(SP)
9D007C64  AFB50024   SW S5, 36(SP)
9D007C68  AFB40020   SW S4, 32(SP)
9D007C6C  AFB20018   SW S2, 24(SP)
9D007C70  AFB10014   SW S1, 20(SP)
9D007C74  AFBF0034   SW RA, 52(SP)
9D007C78  AFBE0030   SW FP, 48(SP)
9D007C7C  AFB3001C   SW S3, 28(SP)
9D007C80  AFB00010   SW S0, 16(SP)
9D007C84  00808825   OR S1, A0, ZERO
9D007C88  00A0B825   OR S7, A1, ZERO
9D007C8C  00C0B025   OR S6, A2, ZERO
9D007C90  00E0A825   OR S5, A3, ZERO
9D007C94  8FB40048   LW S4, 72(SP)
9D007C98  0F400000   JAL do_tzset
9D007C9C  8FB2004C   LW S2, 76(SP)
9D007CA0  3C028000   LUI V0, -32768
9D007CA4  8C422504   LW V0, 9476(V0)
9D007CA8  14400017   BNE V0, ZERO, 0x9D007D08
9D007CAC  3C0601E1   LUI A2, 481
9D007CB0  3C028000   LUI V0, -32768
9D007CB4  8C422520   LW V0, 9504(V0)
9D007CB8  AEA00000   SW ZERO, 0(S5)
9D007CBC  00021023   SUBU V0, ZERO, V0
9D007CC0  16400088   BNE S2, ZERO, 0x9D007EE4
9D007CC4  AE820000   SW V0, 0(S4)
9D007CC8  3C028000   LUI V0, -32768
9D007CCC  8C4221B0   LW V0, 8624(V0)
9D007CD0  8FA30050   LW V1, 80(SP)
9D007CD4  8FBF0034   LW RA, 52(SP)
9D007CD8  8FBE0030   LW FP, 48(SP)
9D007CDC  8FB7002C   LW S7, 44(SP)
9D007CE0  8FB60028   LW S6, 40(SP)
9D007CE4  8FB50024   LW S5, 36(SP)
9D007CE8  8FB40020   LW S4, 32(SP)
9D007CEC  8FB3001C   LW S3, 28(SP)
9D007CF0  8FB20018   LW S2, 24(SP)
9D007CF4  8FB10014   LW S1, 20(SP)
9D007CF8  8FB00010   LW S0, 16(SP)
9D007CFC  AC620000   SW V0, 0(V1)
9D007D00  03E00008   JR RA
9D007D04  27BD0038   ADDIU SP, SP, 56
9D007D08  34C68558   ORI A2, A2, -31400
9D007D0C  00003825   OR A3, ZERO, ZERO
9D007D10  02202025   OR A0, S1, ZERO
9D007D14  0F4017EA   JAL __divdi3
9D007D18  02E02825   OR A1, S7, ZERO
9D007D1C  245E0046   ADDIU FP, V0, 70
9D007D20  03C2102B   SLTU V0, FP, V0
9D007D24  00438021   ADDU S0, V0, V1
9D007D28  03C02025   OR A0, FP, ZERO
9D007D2C  00003025   OR A2, ZERO, ZERO
9D007D30  0F402F17   JAL __year_to_secs
9D007D34  02002825   OR A1, S0, ZERO
9D007D38  02E3202A   SLT A0, S7, V1
9D007D3C  54800054   BNEL A0, ZERO, 0x9D007E90
9D007D40  27C2FFFF   ADDIU V0, FP, -1
9D007D44  14770003   BNE V1, S7, 0x9D007D54
9D007D48  0222102B   SLTU V0, S1, V0
9D007D4C  14400050   BNE V0, ZERO, 0x9D007E90
9D007D50  27C2FFFF   ADDIU V0, FP, -1
9D007D54  27D30001   ADDIU S3, FP, 1
9D007D58  027E182B   SLTU V1, S3, FP
9D007D5C  00708021   ADDU S0, V1, S0
9D007D60  02602025   OR A0, S3, ZERO
9D007D64  00003025   OR A2, ZERO, ZERO
9D007D68  0F402F17   JAL __year_to_secs
9D007D6C  02002825   OR A1, S0, ZERO
9D007D70  0077202A   SLT A0, V1, S7
9D007D74  5480FFF7   BNEL A0, ZERO, 0x9D007D54
9D007D78  0260F025   OR FP, S3, ZERO
9D007D7C  16E30003   BNE S7, V1, 0x9D007D8C
9D007D80  0051102B   SLTU V0, V0, S1
9D007D84  5440FFF3   BNEL V0, ZERO, 0x9D007D54
9D007D88  0260F025   OR FP, S3, ZERO
9D007D8C  3C048000   LUI A0, -32768
9D007D90  03C02825   OR A1, FP, ZERO
9D007D94  0F402FFB   JAL rule_to_secs
9D007D98  24842188   ADDIU A0, A0, 8584
9D007D9C  3C048000   LUI A0, -32768
9D007DA0  03C02825   OR A1, FP, ZERO
9D007DA4  24842174   ADDIU A0, A0, 8564
9D007DA8  00408025   OR S0, V0, ZERO
9D007DAC  0F402FFB   JAL rule_to_secs
9D007DB0  00609825   OR S3, V1, ZERO
9D007DB4  16C00012   BNE S6, ZERO, 0x9D007E00
9D007DB8  0263202A   SLT A0, S3, V1
9D007DBC  3C048000   LUI A0, -32768
9D007DC0  8C842520   LW A0, 9504(A0)
9D007DC4  00042FC3   SRA A1, A0, 31
9D007DC8  02042021   ADDU A0, S0, A0
9D007DCC  0090382B   SLTU A3, A0, S0
9D007DD0  00808025   OR S0, A0, ZERO
9D007DD4  3C048000   LUI A0, -32768
9D007DD8  8C84219C   LW A0, 8604(A0)
9D007DDC  02653021   ADDU A2, S3, A1
9D007DE0  00E69821   ADDU S3, A3, A2
9D007DE4  00042FC3   SRA A1, A0, 31
9D007DE8  00442021   ADDU A0, V0, A0
9D007DEC  0082382B   SLTU A3, A0, V0
9D007DF0  00651821   ADDU V1, V1, A1
9D007DF4  00801025   OR V0, A0, ZERO
9D007DF8  00E31821   ADDU V1, A3, V1
9D007DFC  0263202A   SLT A0, S3, V1
9D007E00  14800007   BNE A0, ZERO, 0x9D007E20
9D007E04  02F3202A   SLT A0, S7, S3
9D007E08  14730026   BNE V1, S3, 0x9D007EA4
9D007E0C  02E3202A   SLT A0, S7, V1
9D007E10  0202202B   SLTU A0, S0, V0
9D007E14  10800023   BEQ A0, ZERO, 0x9D007EA4
9D007E18  02E3202A   SLT A0, S7, V1
9D007E1C  02F3202A   SLT A0, S7, S3
9D007E20  5480FFA4   BNEL A0, ZERO, 0x9D007CB4
9D007E24  3C028000   LUI V0, -32768
9D007E28  16770004   BNE S3, S7, 0x9D007E3C
9D007E2C  02E3202A   SLT A0, S7, V1
9D007E30  0230802B   SLTU S0, S1, S0
9D007E34  5600FF9F   BNEL S0, ZERO, 0x9D007CB4
9D007E38  3C028000   LUI V0, -32768
9D007E3C  54800007   BNEL A0, ZERO, 0x9D007E5C
9D007E40  24020001   ADDIU V0, ZERO, 1
9D007E44  5477FF9B   BNEL V1, S7, 0x9D007CB4
9D007E48  3C028000   LUI V0, -32768
9D007E4C  0222102B   SLTU V0, S1, V0
9D007E50  1040FF98   BEQ V0, ZERO, 0x9D007CB4
9D007E54  3C028000   LUI V0, -32768
9D007E58  24020001   ADDIU V0, ZERO, 1
9D007E5C  AEA20000   SW V0, 0(S5)
9D007E60  3C028000   LUI V0, -32768
9D007E64  8C42219C   LW V0, 8604(V0)
9D007E68  00021023   SUBU V0, ZERO, V0
9D007E6C  12400005   BEQ S2, ZERO, 0x9D007E84
9D007E70  AE820000   SW V0, 0(S4)
9D007E74  3C028000   LUI V0, -32768
9D007E78  8C422520   LW V0, 9504(V0)
9D007E7C  00021023   SUBU V0, ZERO, V0
9D007E80  AE420000   SW V0, 0(S2)
9D007E84  3C028000   LUI V0, -32768
9D007E88  1000FF91   BEQ ZERO, ZERO, 0x9D007CD0
9D007E8C  8C4221B4   LW V0, 8628(V0)
9D007E90  005E182B   SLTU V1, V0, FP
9D007E94  2610FFFF   ADDIU S0, S0, -1
9D007E98  0040F025   OR FP, V0, ZERO
9D007E9C  1000FFA2   BEQ ZERO, ZERO, 0x9D007D28
9D007EA0  00708021   ADDU S0, V1, S0
9D007EA4  5480FFED   BNEL A0, ZERO, 0x9D007E5C
9D007EA8  24020001   ADDIU V0, ZERO, 1
9D007EAC  54770004   BNEL V1, S7, 0x9D007EC0
9D007EB0  02F3102A   SLT V0, S7, S3
9D007EB4  0222102B   SLTU V0, S1, V0
9D007EB8  1440FFE7   BNE V0, ZERO, 0x9D007E58
9D007EBC  02F3102A   SLT V0, S7, S3
9D007EC0  5440FF7C   BNEL V0, ZERO, 0x9D007CB4
9D007EC4  3C028000   LUI V0, -32768
9D007EC8  1677FFE4   BNE S3, S7, 0x9D007E5C
9D007ECC  24020001   ADDIU V0, ZERO, 1
9D007ED0  0230882B   SLTU S1, S1, S0
9D007ED4  5620FF77   BNEL S1, ZERO, 0x9D007CB4
9D007ED8  3C028000   LUI V0, -32768
9D007EDC  1000FFE0   BEQ ZERO, ZERO, 0x9D007E60
9D007EE0  AEA20000   SW V0, 0(S5)
9D007EE4  3C028000   LUI V0, -32768
9D007EE8  8C42219C   LW V0, 8604(V0)
9D007EEC  00021023   SUBU V0, ZERO, V0
9D007EF0  1000FF75   BEQ ZERO, ZERO, 0x9D007CC8
9D007EF4  AE420000   SW V0, 0(S2)
9D00BFEC  27BDFFC0   ADDIU SP, SP, -64
9D00BFF0  AFB10020   SW S1, 32(SP)
9D00BFF4  27A60010   ADDIU A2, SP, 16
9D00BFF8  00808825   OR S1, A0, ZERO
9D00BFFC  00A02025   OR A0, A1, ZERO
9D00C000  00052FC3   SRA A1, A1, 31
9D00C004  AFB70038   SW S7, 56(SP)
9D00C008  AFB50030   SW S5, 48(SP)
9D00C00C  AFB0001C   SW S0, 28(SP)
9D00C010  AFBF003C   SW RA, 60(SP)
9D00C014  AFB60034   SW S6, 52(SP)
9D00C018  AFB4002C   SW S4, 44(SP)
9D00C01C  AFB30028   SW S3, 40(SP)
9D00C020  0F402F17   JAL __year_to_secs
9D00C024  AFB20024   SW S2, 36(SP)
9D00C028  00408025   OR S0, V0, ZERO
9D00C02C  8E220000   LW V0, 0(S1)
9D00C030  0060B825   OR S7, V1, ZERO
9D00C034  2403004D   ADDIU V1, ZERO, 77
9D00C038  10430024   BEQ V0, V1, rule_to_secs
9D00C03C  8E350004   LW S5, 4(S1)
9D00C040  2403004A   ADDIU V1, ZERO, 74
9D00C044  14430008   BNE V0, V1, rule_to_secs
9D00C048  02A02025   OR A0, S5, ZERO
9D00C04C  2AA2003C   SLTI V0, S5, 60
9D00C050  54400005   BNEL V0, ZERO, rule_to_secs
9D00C054  26A4FFFF   ADDIU A0, S5, -1
9D00C058  8FA20010   LW V0, 16(SP)
9D00C05C  14400003   BNE V0, ZERO, rule_to_secs
9D00C060  3C020001   LUI V0, 1
9D00C064  26A4FFFF   ADDIU A0, S5, -1
9D00C068  3C020001   LUI V0, 1
9D00C06C  24425180   ADDIU V0, V0, 20864
9D00C070  70822002   MUL A0, A0, V0
9D00C074  000417C3   SRA V0, A0, 31
9D00C078  00908021   ADDU S0, A0, S0
9D00C07C  0204202B   SLTU A0, S0, A0
9D00C080  00571021   ADDU V0, V0, S7
9D00C084  00822021   ADDU A0, A0, V0
9D00C088  8E250010   LW A1, 16(S1)
9D00C08C  8FBF003C   LW RA, 60(SP)
9D00C090  8FB70038   LW S7, 56(SP)
9D00C094  00B01021   ADDU V0, A1, S0
9D00C098  00051FC3   SRA V1, A1, 31
9D00C09C  00641821   ADDU V1, V1, A0
9D00C0A0  0045282B   SLTU A1, V0, A1
9D00C0A4  00A31821   ADDU V1, A1, V1
9D00C0A8  8FB60034   LW S6, 52(SP)
9D00C0AC  8FB50030   LW S5, 48(SP)
9D00C0B0  8FB4002C   LW S4, 44(SP)
9D00C0B4  8FB30028   LW S3, 40(SP)
9D00C0B8  8FB20024   LW S2, 36(SP)
9D00C0BC  8FB10020   LW S1, 32(SP)
9D00C0C0  8FB0001C   LW S0, 28(SP)
9D00C0C4  03E00008   JR RA
9D00C0C8  27BD0040   ADDIU SP, SP, 64
9D00C0CC  8FA50010   LW A1, 16(SP)
9D00C0D0  26B6FFFF   ADDIU S6, S5, -1
9D00C0D4  02C02025   OR A0, S6, ZERO
9D00C0D8  8E33000C   LW S3, 12(S1)
9D00C0DC  0F404C37   JAL __month_to_secs
9D00C0E0  8E340008   LW S4, 8(S1)
9D00C0E4  3C040005   LUI A0, 5
9D00C0E8  00508021   ADDU S0, V0, S0
9D00C0EC  000297C3   SRA S2, V0, 31
9D00C0F0  24844600   ADDIU A0, A0, 17920
9D00C0F4  0202102B   SLTU V0, S0, V0
9D00C0F8  02042021   ADDU A0, S0, A0
9D00C0FC  02579021   ADDU S2, S2, S7
9D00C100  00529021   ADDU S2, V0, S2
9D00C104  0090282B   SLTU A1, A0, S0
9D00C108  3C060009   LUI A2, 9
9D00C10C  34C63A80   ORI A2, A2, 14976
9D00C110  00003825   OR A3, ZERO, ZERO
9D00C114  0F4016D8   JAL __moddi3
9D00C118  00B22821   ADDU A1, A1, S2
9D00C11C  3C030001   LUI V1, 1
9D00C120  24635180   ADDIU V1, V1, 20864
9D00C124  0043001A   DIV V0, V1
9D00C128  006001F4   TEQ V1, ZERO
9D00C12C  00001812   MFLO V1
9D00C130  02631023   SUBU V0, S3, V1
9D00C134  04420001   BLTZL V0, rule_to_secs
9D00C138  24420007   ADDIU V0, V0, 7
9D00C13C  24030005   ADDIU V1, ZERO, 5
9D00C140  5683000E   BNEL S4, V1, rule_to_secs
9D00C144  2694FFFF   ADDIU S4, S4, -1
9D00C148  8FA40010   LW A0, 16(SP)
9D00C14C  24050002   ADDIU A1, ZERO, 2
9D00C150  2443001C   ADDIU V1, V0, 28
9D00C154  12A50005   BEQ S5, A1, rule_to_secs
9D00C158  2484001C   ADDIU A0, A0, 28
9D00C15C  24040AD5   ADDIU A0, ZERO, 2773
9D00C160  02C42007   SRAV A0, A0, S6
9D00C164  30840001   ANDI A0, A0, 1
9D00C168  2484001E   ADDIU A0, A0, 30
9D00C16C  0064202A   SLT A0, V1, A0
9D00C170  24030004   ADDIU V1, ZERO, 4
9D00C174  0064A00A   MOVZ S4, V1, A0
9D00C178  2694FFFF   ADDIU S4, S4, -1
9D00C17C  001418C0   SLL V1, S4, 3
9D00C180  00741823   SUBU V1, V1, S4
9D00C184  00621821   ADDU V1, V1, V0
9D00C188  3C020001   LUI V0, 1
9D00C18C  24425180   ADDIU V0, V0, 20864
9D00C190  70621802   MUL V1, V1, V0
9D00C194  000327C3   SRA A0, V1, 31
9D00C198  00708021   ADDU S0, V1, S0
9D00C19C  0203182B   SLTU V1, S0, V1
9D00C1A0  00922021   ADDU A0, A0, S2
9D00C1A4  1000FFB8   BEQ ZERO, ZERO, rule_to_secs
9D00C1A8  00642021   ADDU A0, V1, A0
9D010908  8C820000   LW V0, 0(A0)
9D01090C  27BDFFE8   ADDIU SP, SP, -24
9D010910  AFBF0014   SW RA, 20(SP)
9D010914  80430000   LB V1, 0(V0)
9D010918  00A06025   OR T4, A1, ZERO
9D01091C  ACA30000   SW V1, 0(A1)
9D010920  2405004D   ADDIU A1, ZERO, 77
9D010924  10650016   BEQ V1, A1, getrule
9D010928  00804025   OR T0, A0, ZERO
9D01092C  2404004A   ADDIU A0, ZERO, 74
9D010930  54640003   BNEL V1, A0, getrule
9D010934  AD800000   SW ZERO, 0(T4)
9D010938  24420001   ADDIU V0, V0, 1
9D01093C  AD020000   SW V0, 0(T0)
9D010940  0F404BDB   JAL getint
9D010944  01002025   OR A0, T0, ZERO
9D010948  AD820004   SW V0, 4(T4)
9D01094C  8D020000   LW V0, 0(T0)
9D010950  2403002F   ADDIU V1, ZERO, 47
9D010954  80440000   LB A0, 0(V0)
9D010958  54830005   BNEL A0, V1, getrule
9D01095C  24021C20   ADDIU V0, ZERO, 7200
9D010960  24420001   ADDIU V0, V0, 1
9D010964  AD020000   SW V0, 0(T0)
9D010968  0F40429C   JAL getoff
9D01096C  01002025   OR A0, T0, ZERO
9D010970  8FBF0014   LW RA, 20(SP)
9D010974  AD820010   SW V0, 16(T4)
9D010978  03E00008   JR RA
9D01097C  27BD0018   ADDIU SP, SP, 24
9D010980  24420001   ADDIU V0, V0, 1
9D010984  0F404BDB   JAL getint
9D010988  AC820000   SW V0, 0(A0)
9D01098C  AD820004   SW V0, 4(T4)
9D010990  8C820000   LW V0, 0(A0)
9D010994  24420001   ADDIU V0, V0, 1
9D010998  0F404BDB   JAL getint
9D01099C  AC820000   SW V0, 0(A0)
9D0109A0  AD820008   SW V0, 8(T4)
9D0109A4  8C820000   LW V0, 0(A0)
9D0109A8  24420001   ADDIU V0, V0, 1
9D0109AC  0F404BDB   JAL getint
9D0109B0  AC820000   SW V0, 0(A0)
9D0109B4  1000FFE5   BEQ ZERO, ZERO, getrule
9D0109B8  AD82000C   SW V0, 12(T4)
9D0109BC  27BDFFF8   ADDIU SP, SP, -8
9D010A70  8C820000   LW V0, 0(A0)
9D010A74  27BDFFE8   ADDIU SP, SP, -24
9D010A78  AFBF0014   SW RA, 20(SP)
9D010A7C  80430000   LB V1, 0(V0)
9D010A80  00804025   OR T0, A0, ZERO
9D010A84  2404002D   ADDIU A0, ZERO, 45
9D010A88  54640020   BNEL V1, A0, getoff
9D010A8C  2404002B   ADDIU A0, ZERO, 43
9D010A90  24420001   ADDIU V0, V0, 1
9D010A94  AD020000   SW V0, 0(T0)
9D010A98  240A0001   ADDIU T2, ZERO, 1
9D010A9C  0F404BDB   JAL getint
9D010AA0  01002025   OR A0, T0, ZERO
9D010AA4  24090E10   ADDIU T1, ZERO, 3600
9D010AA8  70494802   MUL T1, V0, T1
9D010AAC  8D020000   LW V0, 0(T0)
9D010AB0  2403003A   ADDIU V1, ZERO, 58
9D010AB4  804B0000   LB T3, 0(V0)
9D010AB8  1563000E   BNE T3, V1, getoff
9D010ABC  24420001   ADDIU V0, V0, 1
9D010AC0  0F404BDB   JAL getint
9D010AC4  AD020000   SW V0, 0(T0)
9D010AC8  2403003C   ADDIU V1, ZERO, 60
9D010ACC  70432002   MUL A0, V0, V1
9D010AD0  8D020000   LW V0, 0(T0)
9D010AD4  80430000   LB V1, 0(V0)
9D010AD8  146B0006   BNE V1, T3, getoff
9D010ADC  00894821   ADDU T1, A0, T1
9D010AE0  24420001   ADDIU V0, V0, 1
9D010AE4  AD020000   SW V0, 0(T0)
9D010AE8  0F404BDB   JAL getint
9D010AEC  01002025   OR A0, T0, ZERO
9D010AF0  01224821   ADDU T1, T1, V0
9D010AF4  55400001   BNEL T2, ZERO, getoff
9D010AF8  00094823   SUBU T1, ZERO, T1
9D010AFC  8FBF0014   LW RA, 20(SP)
9D010B00  01201025   OR V0, T1, ZERO
9D010B04  03E00008   JR RA
9D010B08  27BD0018   ADDIU SP, SP, 24
9D010B0C  1464FFE3   BNE V1, A0, getoff
9D010B10  00005025   OR T2, ZERO, ZERO
9D010B14  24420001   ADDIU V0, V0, 1
9D010B18  1000FFE0   BEQ ZERO, ZERO, getoff
9D010B1C  AD020000   SW V0, 0(T0)
9D011070  8CA30000   LW V1, 0(A1)
9D011074  2406003C   ADDIU A2, ZERO, 60
9D011078  00001025   OR V0, ZERO, ZERO
9D01107C  80680000   LB T0, 0(V1)
9D011080  15060019   BNE T0, A2, getname
9D011084  24070006   ADDIU A3, ZERO, 6
9D011088  24630001   ADDIU V1, V1, 1
9D01108C  ACA30000   SW V1, 0(A1)
9D011090  2408003E   ADDIU T0, ZERO, 62
9D011094  8CA30000   LW V1, 0(A1)
9D011098  00623021   ADDU A2, V1, V0
9D01109C  80C60000   LB A2, 0(A2)
9D0110A0  50C80004   BEQL A2, T0, getname
9D0110A4  24630001   ADDIU V1, V1, 1
9D0110A8  54470009   BNEL V0, A3, getname
9D0110AC  00821821   ADDU V1, A0, V0
9D0110B0  24630001   ADDIU V1, V1, 1
9D0110B4  ACA30000   SW V1, 0(A1)
9D0110B8  8CA30000   LW V1, 0(A1)
9D0110BC  00822021   ADDU A0, A0, V0
9D0110C0  00621821   ADDU V1, V1, V0
9D0110C4  ACA30000   SW V1, 0(A1)
9D0110C8  03E00008   JR RA
9D0110CC  A0800000   SB ZERO, 0(A0)
9D0110D0  A0660000   SB A2, 0(V1)
9D0110D4  1000FFEF   BEQ ZERO, ZERO, getname
9D0110D8  24420001   ADDIU V0, V0, 1
9D0110DC  A0660000   SB A2, 0(V1)
9D0110E0  24420001   ADDIU V0, V0, 1
9D0110E4  8CA30000   LW V1, 0(A1)
9D0110E8  00621821   ADDU V1, V1, V0
9D0110EC  80660000   LB A2, 0(V1)
9D0110F0  34C30020   ORI V1, A2, 32
9D0110F4  2463FF9F   ADDIU V1, V1, -97
9D0110F8  2C63001A   SLTIU V1, V1, 26
9D0110FC  5060FFEF   BEQL V1, ZERO, getname
9D011100  8CA30000   LW V1, 0(A1)
9D011104  5447FFF5   BNEL V0, A3, getname
9D011108  00821821   ADDU V1, A0, V0
9D01110C  1000FFEB   BEQ ZERO, ZERO, getname
9D011110  8CA30000   LW V1, 0(A1)
9D012F6C  00001025   OR V0, ZERO, ZERO
9D012F70  2407000A   ADDIU A3, ZERO, 10
9D012F74  8C850000   LW A1, 0(A0)
9D012F78  80A30000   LB V1, 0(A1)
9D012F7C  2463FFD0   ADDIU V1, V1, -48
9D012F80  2C66000A   SLTIU A2, V1, 10
9D012F84  14C00003   BNE A2, ZERO, getint
9D012F88  70473002   MUL A2, V0, A3
9D012F8C  03E00008   JR RA
9D012F90  00000000   NOP
9D012F94  24A50001   ADDIU A1, A1, 1
9D012F98  AC850000   SW A1, 0(A0)
9D012F9C  1000FFF5   BEQ ZERO, ZERO, getint
9D012FA0  00C31021   ADDU V0, A2, V1
9D013634  27BDFFE8   ADDIU SP, SP, -24
9D013638  AFB00010   SW S0, 16(SP)
9D01363C  AFBF0014   SW RA, 20(SP)
9D013640  0F400000   JAL do_tzset
9D013644  8C900028   LW S0, 40(A0)
9D013648  8FBF0014   LW RA, 20(SP)
9D01364C  02001025   OR V0, S0, ZERO
9D013650  8FB00010   LW S0, 16(SP)
9D013654  03E00008   JR RA
9D013658  27BD0018   ADDIU SP, SP, 24
---  /data01/build/bamboo/xml-data/build-dir/M32DEV-GMB34-JOB1/src/xc32-musl-stdlib/musl/musl-1.1.18/src/time/localtime_r.c
-----*  Optimizer-Generated Procedural Abstractions  *----------------------------------------------
9D011528  27BDFFD0   ADDIU SP, SP, -48
9D01152C  24A20028   ADDIU V0, A1, 40
9D011530  AFA20018   SW V0, 24(SP)
9D011534  24A20024   ADDIU V0, A1, 36
9D011538  AFA20010   SW V0, 16(SP)
9D01153C  AFA00014   SW ZERO, 20(SP)
9D011540  AFB10028   SW S1, 40(SP)
9D011544  00808825   OR S1, A0, ZERO
9D011548  8C840000   LW A0, 0(A0)
9D01154C  AFB00024   SW S0, 36(SP)
9D011550  24A70020   ADDIU A3, A1, 32
9D011554  00A08025   OR S0, A1, ZERO
9D011558  00003025   OR A2, ZERO, ZERO
9D01155C  AFBF002C   SW RA, 44(SP)
9D011560  0F401F16   JAL __secs_to_zone
9D011564  00002825   OR A1, ZERO, ZERO
9D011568  8E220000   LW V0, 0(S1)
9D01156C  8E040024   LW A0, 36(S0)
9D011570  02003025   OR A2, S0, ZERO
9D011574  00042FC3   SRA A1, A0, 31
9D011578  00442021   ADDU A0, V0, A0
9D01157C  0082102B   SLTU V0, A0, V0
9D011580  0F401CE1   JAL __secs_to_tm
9D011584  00452821   ADDU A1, V0, A1
9D011588  04410006   BGEZ V0, localtime_r
9D01158C  8FBF002C   LW RA, 44(SP)
9D011590  3C028000   LUI V0, -32768
9D011594  2403004F   ADDIU V1, ZERO, 79
9D011598  AC432528   SW V1, 9512(V0)
9D01159C  00008025   OR S0, ZERO, ZERO
9D0115A0  8FBF002C   LW RA, 44(SP)
9D0115A4  02001025   OR V0, S0, ZERO
9D0115A8  8FB10028   LW S1, 40(SP)
9D0115AC  8FB00024   LW S0, 36(SP)
9D0115B0  03E00008   JR RA
9D0115B4  27BD0030   ADDIU SP, SP, 48
---  /data01/build/bamboo/xml-data/build-dir/M32DEV-GMB34-JOB1/src/xc32-musl-stdlib/musl/musl-1.1.18/src/time/localtime.c
-----*  Optimizer-Generated Procedural Abstractions  *----------------------------------------------
9D013848  3C058000   LUI A1, -32768
9D01384C  27BDFFE8   ADDIU SP, SP, -24
9D013850  AFBF0014   SW RA, 20(SP)
9D013854  0F40454A   JAL __localtime_r
9D013858  24A523C4   ADDIU A1, A1, 9156
9D01385C  8FBF0014   LW RA, 20(SP)
9D013860  03E00008   JR RA
9D013864  27BD0018   ADDIU SP, SP, 24
---  /data01/build/bamboo/xml-data/build-dir/M32DEV-GMB34-JOB1/src/xc32-musl-stdlib/musl/musl-1.1.18/src/time/gmtime_r.c
-----*  Optimizer-Generated Procedural Abstractions  *----------------------------------------------
9D012288  8C840000   LW A0, 0(A0)
9D01228C  27BDFFE8   ADDIU SP, SP, -24
9D012290  AFB00010   SW S0, 16(SP)
9D012294  00A03025   OR A2, A1, ZERO
9D012298  00A08025   OR S0, A1, ZERO
9D01229C  AFBF0014   SW RA, 20(SP)
9D0122A0  0F401CE1   JAL __secs_to_tm
9D0122A4  00002825   OR A1, ZERO, ZERO
9D0122A8  0441000A   BGEZ V0, gmtime_r
9D0122AC  3C029D01   LUI V0, -25343
9D0122B0  3C028000   LUI V0, -32768
9D0122B4  2403004F   ADDIU V1, ZERO, 79
9D0122B8  AC432528   SW V1, 9512(V0)
9D0122BC  00008025   OR S0, ZERO, ZERO
9D0122C0  8FBF0014   LW RA, 20(SP)
9D0122C4  02001025   OR V0, S0, ZERO
9D0122C8  8FB00010   LW S0, 16(SP)
9D0122CC  03E00008   JR RA
9D0122D0  27BD0018   ADDIU SP, SP, 24
9D0122D4  24421D14   ADDIU V0, V0, 7444
9D0122D8  AE000020   SW ZERO, 32(S0)
9D0122DC  AE000024   SW ZERO, 36(S0)
9D0122E0  1000FFF7   BEQ ZERO, ZERO, gmtime_r
9D0122E4  AE020028   SW V0, 40(S0)
---  /data01/build/bamboo/xml-data/build-dir/M32DEV-GMB34-JOB1/src/xc32-musl-stdlib/musl/musl-1.1.18/src/time/gmtime.c
-----*  Optimizer-Generated Procedural Abstractions  *----------------------------------------------
9D013828  3C058000   LUI A1, -32768
9D01382C  27BDFFE8   ADDIU SP, SP, -24
9D013830  AFBF0014   SW RA, 20(SP)
9D013834  0F4048A2   JAL __gmtime_r
9D013838  24A52398   ADDIU A1, A1, 9112
9D01383C  8FBF0014   LW RA, 20(SP)
9D013840  03E00008   JR RA
9D013844  27BD0018   ADDIU SP, SP, 24
---  /data01/build/bamboo/xml-data/build-dir/M32DEV-GMB34-JOB1/src/xc32-musl-stdlib/musl/musl-1.1.18/src/time/__year_to_secs.c
-----*  Optimizer-Generated Procedural Abstractions  *----------------------------------------------
9D00BC5C  27BDFFD0   ADDIU SP, SP, -48
9D00BC60  AFB30028   SW S3, 40(SP)
9D00BC64  AFBF002C   SW RA, 44(SP)
9D00BC68  AFB20024   SW S2, 36(SP)
9D00BC6C  AFB10020   SW S1, 32(SP)
9D00BC70  AFB0001C   SW S0, 28(SP)
9D00BC74  1CA00021   BGTZ A1, 0x9D00BCFC
9D00BC78  00C09825   OR S3, A2, ZERO
9D00BC7C  14A00004   BNE A1, ZERO, 0x9D00BC90
9D00BC80  2482FFBC   ADDIU V0, A0, -68
9D00BC84  2C82008B   SLTIU V0, A0, 139
9D00BC88  1040001C   BEQ V0, ZERO, 0x9D00BCFC
9D00BC8C  2482FFBC   ADDIU V0, A0, -68
9D00BC90  30830003   ANDI V1, A0, 3
9D00BC94  14600015   BNE V1, ZERO, 0x9D00BCEC
9D00BC98  00021083   SRA V0, V0, 2
9D00BC9C  12600003   BEQ S3, ZERO, 0x9D00BCAC
9D00BCA0  2442FFFF   ADDIU V0, V0, -1
9D00BCA4  24030001   ADDIU V1, ZERO, 1
9D00BCA8  AE630000   SW V1, 0(S3)
9D00BCAC  3C030001   LUI V1, 1
9D00BCB0  24635180   ADDIU V1, V1, 20864
9D00BCB4  00430018   MULT 0, V0, V1
9D00BCB8  3C0201E1   LUI V0, 481
9D00BCBC  24423380   ADDIU V0, V0, 13184
9D00BCC0  2484FFBA   ADDIU A0, A0, -70
9D00BCC4  70820000   MADD 0, A0, V0
9D00BCC8  00001012   MFLO V0
9D00BCCC  00021FC3   SRA V1, V0, 31
9D00BCD0  8FBF002C   LW RA, 44(SP)
9D00BCD4  8FB30028   LW S3, 40(SP)
9D00BCD8  8FB20024   LW S2, 36(SP)
9D00BCDC  8FB10020   LW S1, 32(SP)
9D00BCE0  8FB0001C   LW S0, 28(SP)
9D00BCE4  03E00008   JR RA
9D00BCE8  27BD0030   ADDIU SP, SP, 48
9D00BCEC  5660FFEF   BNEL S3, ZERO, 0x9D00BCAC
9D00BCF0  AE600000   SW ZERO, 0(S3)
9D00BCF4  1000FFEE   BEQ ZERO, ZERO, 0x9D00BCB0
9D00BCF8  3C030001   LUI V1, 1
9D00BCFC  16600003   BNE S3, ZERO, 0x9D00BD0C
9D00BD00  2492FF9C   ADDIU S2, A0, -100
9D00BD04  AFA00010   SW ZERO, 16(SP)
9D00BD08  27B30010   ADDIU S3, SP, 16
9D00BD0C  24110190   ADDIU S1, ZERO, 400
9D00BD10  0251001A   DIV S2, S1
9D00BD14  022001F4   TEQ S1, ZERO
9D00BD18  0244202B   SLTU A0, S2, A0
9D00BD1C  24A5FFFF   ADDIU A1, A1, -1
9D00BD20  00858021   ADDU S0, A0, A1
9D00BD24  24060190   ADDIU A2, ZERO, 400
9D00BD28  00003825   OR A3, ZERO, ZERO
9D00BD2C  02402025   OR A0, S2, ZERO
9D00BD30  02002825   OR A1, S0, ZERO
9D00BD34  0F4016D8   JAL __moddi3
9D00BD38  00008812   MFLO S1
9D00BD3C  54400022   BNEL V0, ZERO, 0x9D00BDC8
9D00BD40  284300C8   SLTI V1, V0, 200
9D00BD44  24030001   ADDIU V1, ZERO, 1
9D00BD48  AE630000   SW V1, 0(S3)
9D00BD4C  00002025   OR A0, ZERO, ZERO
9D00BD50  24030018   ADDIU V1, ZERO, 24
9D00BD54  00430018   MULT 0, V0, V1
9D00BD58  24020061   ADDIU V0, ZERO, 97
9D00BD5C  3C030001   LUI V1, 1
9D00BD60  24635180   ADDIU V1, V1, 20864
9D00BD64  3C0601E1   LUI A2, 481
9D00BD68  24C63380   ADDIU A2, A2, 13184
9D00BD6C  72220000   MADD 0, S1, V0
9D00BD70  8E710000   LW S1, 0(S3)
9D00BD74  00001012   MFLO V0
9D00BD78  00511023   SUBU V0, V0, S1
9D00BD7C  00441021   ADDU V0, V0, A0
9D00BD80  00430018   MULT 0, V0, V1
9D00BD84  00004012   MFLO T0
9D00BD88  00004810   MFHI T1
9D00BD8C  02460019   MULTU 0, S2, A2
9D00BD90  00009012   MFLO S2
9D00BD94  01122021   ADDU A0, T0, S2
9D00BD98  00009810   MFHI S3
9D00BD9C  72061002   MUL V0, S0, A2
9D00BDA0  00539821   ADDU S3, V0, S3
9D00BDA4  01331821   ADDU V1, T1, S3
9D00BDA8  0088102B   SLTU V0, A0, T0
9D00BDAC  00431821   ADDU V1, V0, V1
9D00BDB0  3C02386E   LUI V0, 14446
9D00BDB4  34429500   ORI V0, V0, -27392
9D00BDB8  00821021   ADDU V0, A0, V0
9D00BDBC  0044202B   SLTU A0, V0, A0
9D00BDC0  1000FFC3   BEQ ZERO, ZERO, 0x9D00BCD0
9D00BDC4  00831821   ADDU V1, A0, V1
9D00BDC8  1460000E   BNE V1, ZERO, 0x9D00BE04
9D00BDCC  28430064   SLTI V1, V0, 100
9D00BDD0  2843012C   SLTI V1, V0, 300
9D00BDD4  54600009   BNEL V1, ZERO, 0x9D00BDFC
9D00BDD8  2442FF38   ADDIU V0, V0, -200
9D00BDDC  2442FED4   ADDIU V0, V0, -300
9D00BDE0  24030003   ADDIU V1, ZERO, 3
9D00BDE4  5440000D   BNEL V0, ZERO, 0x9D00BE1C
9D00BDE8  00022082   SRL A0, V0, 2
9D00BDEC  AE600000   SW ZERO, 0(S3)
9D00BDF0  00002025   OR A0, ZERO, ZERO
9D00BDF4  1000FFD6   BEQ ZERO, ZERO, 0x9D00BD50
9D00BDF8  00601025   OR V0, V1, ZERO
9D00BDFC  1000FFF9   BEQ ZERO, ZERO, 0x9D00BDE4
9D00BE00  24030002   ADDIU V1, ZERO, 2
9D00BE04  54600004   BNEL V1, ZERO, 0x9D00BE18
9D00BE08  00001825   OR V1, ZERO, ZERO
9D00BE0C  2442FF9C   ADDIU V0, V0, -100
9D00BE10  1000FFF4   BEQ ZERO, ZERO, 0x9D00BDE4
9D00BE14  24030001   ADDIU V1, ZERO, 1
9D00BE18  00022082   SRL A0, V0, 2
9D00BE1C  30420003   ANDI V0, V0, 3
9D00BE20  2C420001   SLTIU V0, V0, 1
9D00BE24  1000FFF3   BEQ ZERO, ZERO, 0x9D00BDF4
9D00BE28  AE620000   SW V0, 0(S3)
---  /data01/build/bamboo/xml-data/build-dir/M32DEV-GMB34-JOB1/src/xc32-musl-stdlib/musl/musl-1.1.18/src/time/__tm_to_secs.c
-----*  Optimizer-Generated Procedural Abstractions  *----------------------------------------------
9D00EE00  27BDFFD0   ADDIU SP, SP, -48
9D00EE04  AFB10020   SW S1, 32(SP)
9D00EE08  00808825   OR S1, A0, ZERO
9D00EE0C  AFB0001C   SW S0, 28(SP)
9D00EE10  8E300010   LW S0, 16(S1)
9D00EE14  8C840014   LW A0, 20(A0)
9D00EE18  AFBF002C   SW RA, 44(SP)
9D00EE1C  2E02000C   SLTIU V0, S0, 12
9D00EE20  AFB30028   SW S3, 40(SP)
9D00EE24  AFB20024   SW S2, 36(SP)
9D00EE28  1440000F   BNE V0, ZERO, 0x9D00EE68
9D00EE2C  00042FC3   SRA A1, A0, 31
9D00EE30  2402000C   ADDIU V0, ZERO, 12
9D00EE34  0202001A   DIV S0, V0
9D00EE38  004001F4   TEQ V0, ZERO
9D00EE3C  00008010   MFHI S0
9D00EE40  06010003   BGEZ S0, 0x9D00EE50
9D00EE44  00001012   MFLO V0
9D00EE48  2442FFFF   ADDIU V0, V0, -1
9D00EE4C  2610000C   ADDIU S0, S0, 12
9D00EE50  000237C3   SRA A2, V0, 31
9D00EE54  00821021   ADDU V0, A0, V0
9D00EE58  0044182B   SLTU V1, V0, A0
9D00EE5C  00A62821   ADDU A1, A1, A2
9D00EE60  00402025   OR A0, V0, ZERO
9D00EE64  00652821   ADDU A1, V1, A1
9D00EE68  0F402F17   JAL __year_to_secs
9D00EE6C  27A60010   ADDIU A2, SP, 16
9D00EE70  8FA50010   LW A1, 16(SP)
9D00EE74  02002025   OR A0, S0, ZERO
9D00EE78  00409025   OR S2, V0, ZERO
9D00EE7C  0F404C37   JAL __month_to_secs
9D00EE80  00609825   OR S3, V1, ZERO
9D00EE84  00523021   ADDU A2, V0, S2
9D00EE88  000227C3   SRA A0, V0, 31
9D00EE8C  00931821   ADDU V1, A0, S3
9D00EE90  00C2102B   SLTU V0, A2, V0
9D00EE94  00432821   ADDU A1, V0, V1
9D00EE98  8E23000C   LW V1, 12(S1)
9D00EE9C  00C00013   MTLO A2
9D00EEA0  3C020001   LUI V0, 1
9D00EEA4  2463FFFF   ADDIU V1, V1, -1
9D00EEA8  24425180   ADDIU V0, V0, 20864
9D00EEAC  00A00011   MTHI A1
9D00EEB0  8FBF002C   LW RA, 44(SP)
9D00EEB4  8FB30028   LW S3, 40(SP)
9D00EEB8  70620000   MADD 0, V1, V0
9D00EEBC  8E230008   LW V1, 8(S1)
9D00EEC0  24020E10   ADDIU V0, ZERO, 3600
9D00EEC4  8FB20024   LW S2, 36(SP)
9D00EEC8  8FB0001C   LW S0, 28(SP)
9D00EECC  70620000   MADD 0, V1, V0
9D00EED0  8E230004   LW V1, 4(S1)
9D00EED4  2402003C   ADDIU V0, ZERO, 60
9D00EED8  70620000   MADD 0, V1, V0
9D00EEDC  8E230000   LW V1, 0(S1)
9D00EEE0  8FB10020   LW S1, 32(SP)
9D00EEE4  27BD0030   ADDIU SP, SP, 48
9D00EEE8  000337C3   SRA A2, V1, 31
9D00EEEC  00002012   MFLO A0
9D00EEF0  00641021   ADDU V0, V1, A0
9D00EEF4  0043182B   SLTU V1, V0, V1
9D00EEF8  00002810   MFHI A1
9D00EEFC  00C52021   ADDU A0, A2, A1
9D00EF00  03E00008   JR RA
9D00EF04  00641821   ADDU V1, V1, A0
---  /data01/build/bamboo/xml-data/build-dir/M32DEV-GMB34-JOB1/src/xc32-musl-stdlib/musl/musl-1.1.18/src/time/__secs_to_tm.c
-----*  Optimizer-Generated Procedural Abstractions  *----------------------------------------------
9D007384  3C0300F1   LUI V1, 241
9D007388  24634280   ADDIU V1, V1, 17024
9D00738C  3C0201E2   LUI V0, 482
9D007390  00A31821   ADDU V1, A1, V1
9D007394  34428500   ORI V0, V0, -31488
9D007398  0062382B   SLTU A3, V1, V0
9D00739C  10E000BD   BEQ A3, ZERO, 0x9D007694
9D0073A0  00000000   NOP
9D0073A4  2442FFFF   ADDIU V0, V0, -1
9D0073A8  14620005   BNE V1, V0, 0x9D0073C0
9D0073AC  3C02FE1D   LUI V0, -483
9D0073B0  24427B01   ADDIU V0, V0, 31489
9D0073B4  0082102B   SLTU V0, A0, V0
9D0073B8  104000B6   BEQ V0, ZERO, 0x9D007694
9D0073BC  00000000   NOP
9D0073C0  27BDFFD0   ADDIU SP, SP, -48
9D0073C4  AFB20018   SW S2, 24(SP)
9D0073C8  3C12C743   LUI S2, -14525
9D0073CC  3652A280   ORI S2, S2, -23936
9D0073D0  00929021   ADDU S2, A0, S2
9D0073D4  0244202B   SLTU A0, S2, A0
9D0073D8  24A5FFFF   ADDIU A1, A1, -1
9D0073DC  AFB10014   SW S1, 20(SP)
9D0073E0  AFB00010   SW S0, 16(SP)
9D0073E4  00C08825   OR S1, A2, ZERO
9D0073E8  00858021   ADDU S0, A0, A1
9D0073EC  3C060001   LUI A2, 1
9D0073F0  02002825   OR A1, S0, ZERO
9D0073F4  34C65180   ORI A2, A2, 20864
9D0073F8  00003825   OR A3, ZERO, ZERO
9D0073FC  02402025   OR A0, S2, ZERO
9D007400  AFBF002C   SW RA, 44(SP)
9D007404  AFB60028   SW S6, 40(SP)
9D007408  AFB50024   SW S5, 36(SP)
9D00740C  AFB40020   SW S4, 32(SP)
9D007410  0F4017EA   JAL __divdi3
9D007414  AFB3001C   SW S3, 28(SP)
9D007418  3C060001   LUI A2, 1
9D00741C  02002825   OR A1, S0, ZERO
9D007420  34C65180   ORI A2, A2, 20864
9D007424  00003825   OR A3, ZERO, ZERO
9D007428  02402025   OR A0, S2, ZERO
9D00742C  0040A025   OR S4, V0, ZERO
9D007430  0060B025   OR S6, V1, ZERO
9D007434  00409825   OR S3, V0, ZERO
9D007438  0F4016D8   JAL __moddi3
9D00743C  0060A825   OR S5, V1, ZERO
9D007440  04410008   BGEZ V0, 0x9D007464
9D007444  00408025   OR S0, V0, ZERO
9D007448  3C020001   LUI V0, 1
9D00744C  2693FFFF   ADDIU S3, S4, -1
9D007450  24425180   ADDIU V0, V0, 20864
9D007454  0274A02B   SLTU S4, S3, S4
9D007458  26D5FFFF   ADDIU S5, S6, -1
9D00745C  02028021   ADDU S0, S0, V0
9D007460  0295A821   ADDU S5, S4, S5
9D007464  26640003   ADDIU A0, S3, 3
9D007468  0093282B   SLTU A1, A0, S3
9D00746C  24060007   ADDIU A2, ZERO, 7
9D007470  00003825   OR A3, ZERO, ZERO
9D007474  0F4016D8   JAL __moddi3
9D007478  00B52821   ADDU A1, A1, S5
9D00747C  04410002   BGEZ V0, 0x9D007488
9D007480  00409025   OR S2, V0, ZERO
9D007484  24520007   ADDIU S2, V0, 7
9D007488  3C060002   LUI A2, 2
9D00748C  34C63AB1   ORI A2, A2, 15025
9D007490  00003825   OR A3, ZERO, ZERO
9D007494  02602025   OR A0, S3, ZERO
9D007498  0F4017EA   JAL __divdi3
9D00749C  02A02825   OR A1, S5, ZERO
9D0074A0  3C060002   LUI A2, 2
9D0074A4  34C63AB1   ORI A2, A2, 15025
9D0074A8  00003825   OR A3, ZERO, ZERO
9D0074AC  02602025   OR A0, S3, ZERO
9D0074B0  02A02825   OR A1, S5, ZERO
9D0074B4  0F4016D8   JAL __moddi3
9D0074B8  0040A025   OR S4, V0, ZERO
9D0074BC  04410005   BGEZ V0, 0x9D0074D4
9D0074C0  34048EAC   ORI A0, ZERO, -29012
9D0074C4  3C030002   LUI V1, 2
9D0074C8  24633AB1   ADDIU V1, V1, 15025
9D0074CC  00431021   ADDU V0, V0, V1
9D0074D0  2694FFFF   ADDIU S4, S4, -1
9D0074D4  0044001A   DIV V0, A0
9D0074D8  008001F4   TEQ A0, ZERO
9D0074DC  24030004   ADDIU V1, ZERO, 4
9D0074E0  00002012   MFLO A0
9D0074E4  50830001   BEQL A0, V1, 0x9D0074EC
9D0074E8  24040003   ADDIU A0, ZERO, 3
9D0074EC  3C07FFFF   LUI A3, -1
9D0074F0  24E77154   ADDIU A3, A3, 29012
9D0074F4  70871802   MUL V1, A0, A3
9D0074F8  24050019   ADDIU A1, ZERO, 25
9D0074FC  00621021   ADDU V0, V1, V0
9D007500  240305B5   ADDIU V1, ZERO, 1461
9D007504  0043001A   DIV V0, V1
9D007508  006001F4   TEQ V1, ZERO
9D00750C  00001812   MFLO V1
9D007510  50650001   BEQL V1, A1, 0x9D007518
9D007514  24030018   ADDIU V1, ZERO, 24
9D007518  2407FA4B   ADDIU A3, ZERO, -1461
9D00751C  70672802   MUL A1, V1, A3
9D007520  24060004   ADDIU A2, ZERO, 4
9D007524  00A21021   ADDU V0, A1, V0
9D007528  2405016D   ADDIU A1, ZERO, 365
9D00752C  0045001A   DIV V0, A1
9D007530  00A001F4   TEQ A1, ZERO
9D007534  00002812   MFLO A1
9D007538  50A60001   BEQL A1, A2, 0x9D007540
9D00753C  24050003   ADDIU A1, ZERO, 3
9D007540  2407FE93   ADDIU A3, ZERO, -365
9D007544  70A73002   MUL A2, A1, A3
9D007548  00C23821   ADDU A3, A2, V0
9D00754C  14A00004   BNE A1, ZERO, 0x9D007560
9D007550  00001025   OR V0, ZERO, ZERO
9D007554  14600002   BNE V1, ZERO, 0x9D007560
9D007558  24020001   ADDIU V0, ZERO, 1
9D00755C  2C820001   SLTIU V0, A0, 1
9D007560  28E60132   SLTI A2, A3, 306
9D007564  10C00003   BEQ A2, ZERO, 0x9D007574
9D007568  24E8FECE   ADDIU T0, A3, -306
9D00756C  24E8003B   ADDIU T0, A3, 59
9D007570  01024021   ADDU T0, T0, V0
9D007574  24020064   ADDIU V0, ZERO, 100
9D007578  00031880   SLL V1, V1, 2
9D00757C  00651821   ADDU V1, V1, A1
9D007580  70822802   MUL A1, A0, V0
9D007584  24020190   ADDIU V0, ZERO, 400
9D007588  00A31821   ADDU V1, A1, V1
9D00758C  00032FC3   SRA A1, V1, 31
9D007590  00600013   MTLO V1
9D007594  00001825   OR V1, ZERO, ZERO
9D007598  00A00011   MTHI A1
9D00759C  72820000   MADD 0, S4, V0
9D0075A0  3C029D01   LUI V0, -25343
9D0075A4  24423D88   ADDIU V0, V0, 15752
9D0075A8  00002012   MFLO A0
9D0075AC  00002810   MFHI A1
9D0075B0  00433021   ADDU A2, V0, V1
9D0075B4  80C60000   LB A2, 0(A2)
9D0075B8  00E6482A   SLT T1, A3, A2
9D0075BC  51200033   BEQL T1, ZERO, 0x9D00768C
9D0075C0  00E63823   SUBU A3, A3, A2
9D0075C4  2862000A   SLTI V0, V1, 10
9D0075C8  14400008   BNE V0, ZERO, 0x9D0075EC
9D0075CC  3C068000   LUI A2, -32768
9D0075D0  24860001   ADDIU A2, A0, 1
9D0075D4  00C4102B   SLTU V0, A2, A0
9D0075D8  00451021   ADDU V0, V0, A1
9D0075DC  2463FFF4   ADDIU V1, V1, -12
9D0075E0  00C02025   OR A0, A2, ZERO
9D0075E4  00402825   OR A1, V0, ZERO
9D0075E8  3C068000   LUI A2, -32768
9D0075EC  24C60064   ADDIU A2, A2, 100
9D0075F0  00863021   ADDU A2, A0, A2
9D0075F4  00C4302B   SLTU A2, A2, A0
9D0075F8  00C53021   ADDU A2, A2, A1
9D0075FC  14C00019   BNE A2, ZERO, 0x9D007664
9D007600  2402FFFF   ADDIU V0, ZERO, -1
9D007604  24020E10   ADDIU V0, ZERO, 3600
9D007608  0202001A   DIV S0, V0
9D00760C  004001F4   TEQ V0, ZERO
9D007610  24630002   ADDIU V1, V1, 2
9D007614  AE230010   SW V1, 16(S1)
9D007618  24840064   ADDIU A0, A0, 100
9D00761C  24E70001   ADDIU A3, A3, 1
9D007620  AE240014   SW A0, 20(S1)
9D007624  AE27000C   SW A3, 12(S1)
9D007628  AE320018   SW S2, 24(S1)
9D00762C  AE28001C   SW T0, 28(S1)
9D007630  00001012   MFLO V0
9D007634  AE220008   SW V0, 8(S1)
9D007638  2402003C   ADDIU V0, ZERO, 60
9D00763C  0202001A   DIV S0, V0
9D007640  004001F4   TEQ V0, ZERO
9D007644  00008012   MFLO S0
9D007648  00001810   MFHI V1
9D00764C  AE230000   SW V1, 0(S1)
9D007650  0202001A   DIV S0, V0
9D007654  004001F4   TEQ V0, ZERO
9D007658  00001025   OR V0, ZERO, ZERO
9D00765C  00008010   MFHI S0
9D007660  AE300004   SW S0, 4(S1)
9D007664  8FBF002C   LW RA, 44(SP)
9D007668  8FB60028   LW S6, 40(SP)
9D00766C  8FB50024   LW S5, 36(SP)
9D007670  8FB40020   LW S4, 32(SP)
9D007674  8FB3001C   LW S3, 28(SP)
9D007678  8FB20018   LW S2, 24(SP)
9D00767C  8FB10014   LW S1, 20(SP)
9D007680  8FB00010   LW S0, 16(SP)
9D007684  03E00008   JR RA
9D007688  27BD0030   ADDIU SP, SP, 48
9D00768C  1000FFC8   BEQ ZERO, ZERO, 0x9D0075B0
9D007690  24630001   ADDIU V1, V1, 1
9D007694  03E00008   JR RA
9D007698  2402FFFF   ADDIU V0, ZERO, -1
---  /data01/build/bamboo/xml-data/build-dir/M32DEV-GMB34-JOB1/src/xc32-musl-stdlib/musl/musl-1.1.18/src/time/__month_to_secs.c
-----*  Optimizer-Generated Procedural Abstractions  *----------------------------------------------
9D0130DC  3C039D01   LUI V1, -25343
9D0130E0  00041080   SLL V0, A0, 2
9D0130E4  246332C0   ADDIU V1, V1, 12992
9D0130E8  00431021   ADDU V0, V0, V1
9D0130EC  10A00006   BEQ A1, ZERO, 0x9D013108
9D0130F0  8C420000   LW V0, 0(V0)
9D0130F4  28840002   SLTI A0, A0, 2
9D0130F8  14800003   BNE A0, ZERO, 0x9D013108
9D0130FC  3C030001   LUI V1, 1
9D013100  24635180   ADDIU V1, V1, 20864
9D013104  00431021   ADDU V0, V0, V1
9D013108  03E00008   JR RA
9D01310C  00000000   NOP
---  /data01/build/bamboo/xml-data/build-dir/M32DEV-GMB34-JOB1/src/xc32-musl-stdlib/musl/musl-1.1.18/src/string/xc32/stpcpy.c
-----*  Optimizer-Generated Procedural Abstractions  *----------------------------------------------
9D013868  24A50001   ADDIU A1, A1, 1
9D01386C  80A3FFFF   LB V1, -1(A1)
9D013870  00801025   OR V0, A0, ZERO
9D013874  24840001   ADDIU A0, A0, 1
9D013878  1460FFFB   BNE V1, ZERO, stpcpy
9D01387C  A083FFFF   SB V1, -1(A0)
9D013880  03E00008   JR RA
9D013884  00000000   NOP
---  /data01/build/bamboo/xml-data/build-dir/M32DEV-GMB34-JOB1/src/xc32-musl-stdlib/musl/musl-1.1.18/src/string/strncmp.c
-----*  Optimizer-Generated Procedural Abstractions  *----------------------------------------------
9D012A40  10C0000F   BEQ A2, ZERO, 0x9D012A80
9D012A44  00001025   OR V0, ZERO, ZERO
9D012A48  24C6FFFF   ADDIU A2, A2, -1
9D012A4C  00001825   OR V1, ZERO, ZERO
9D012A50  00831021   ADDU V0, A0, V1
9D012A54  90420000   LBU V0, 0(V0)
9D012A58  00A33821   ADDU A3, A1, V1
9D012A5C  10400007   BEQ V0, ZERO, 0x9D012A7C
9D012A60  90E70000   LBU A3, 0(A3)
9D012A64  50E00006   BEQL A3, ZERO, 0x9D012A80
9D012A68  00471023   SUBU V0, V0, A3
9D012A6C  50C30004   BEQL A2, V1, 0x9D012A80
9D012A70  00471023   SUBU V0, V0, A3
9D012A74  1047FFF6   BEQ V0, A3, 0x9D012A50
9D012A78  24630001   ADDIU V1, V1, 1
9D012A7C  00471023   SUBU V0, V0, A3
9D012A80  03E00008   JR RA
9D012A84  00000000   NOP
---  /data01/build/bamboo/xml-data/build-dir/M32DEV-GMB34-JOB1/src/xc32-musl-stdlib/musl/musl-1.1.18/src/string/strcpy.c
-----*  Optimizer-Generated Procedural Abstractions  *----------------------------------------------
9D01360C  27BDFFE8   ADDIU SP, SP, -24
9D013610  AFB00010   SW S0, 16(SP)
9D013614  AFBF0014   SW RA, 20(SP)
9D013618  0F404E1A   JAL stpcpy
9D01361C  00808025   OR S0, A0, ZERO
9D013620  8FBF0014   LW RA, 20(SP)
9D013624  02001025   OR V0, S0, ZERO
9D013628  8FB00010   LW S0, 16(SP)
9D01362C  03E00008   JR RA
9D013630  27BD0018   ADDIU SP, SP, 24
---  /data01/build/bamboo/xml-data/build-dir/M32DEV-GMB34-JOB1/src/xc32-musl-stdlib/musl/musl-1.1.18/src/stdlib/mchp/strtol.c
-----*  Optimizer-Generated Procedural Abstractions  *----------------------------------------------
00000000  00000000   NOP
00000004  00000000   NOP
00000008  00000000   NOP
00000010  00000000   NOP
00000014  00000000   NOP
00000018  00000000   NOP
00000020  00000000   NOP
9D0106D8  27BDFF70   ADDIU SP, SP, -144
9D0106DC  AFB20088   SW S2, 136(SP)
9D0106E0  AFB10084   SW S1, 132(SP)
9D0106E4  AFB00080   SW S0, 128(SP)
9D0106E8  AFBF008C   SW RA, 140(SP)
9D0106EC  00808025   OR S0, A0, ZERO
9D0106F0  00A08825   OR S1, A1, ZERO
9D0106F4  00C09025   OR S2, A2, ZERO
9D0106F8  AFA0001C   SW ZERO, 28(SP)
9D0106FC  AFA40054   SW A0, 84(SP)
9D010700  AFA40020   SW A0, 32(SP)
9D010704  04800004   BLTZ A0, strtox
9D010708  2402FFFF   ADDIU V0, ZERO, -1
9D01070C  3C027FFF   LUI V0, 32767
9D010710  3442FFFF   ORI V0, V0, -1
9D010714  00821021   ADDU V0, A0, V0
9D010718  00003025   OR A2, ZERO, ZERO
9D01071C  00003825   OR A3, ZERO, ZERO
9D010720  27A40018   ADDIU A0, SP, 24
9D010724  0F404A59   JAL __shlim
9D010728  AFA20058   SW V0, 88(SP)
9D01072C  8FA200A0   LW V0, 160(SP)
9D010730  8FA300A4   LW V1, 164(SP)
9D010734  02402825   OR A1, S2, ZERO
9D010738  27A40018   ADDIU A0, SP, 24
9D01073C  AFA20010   SW V0, 16(SP)
9D010740  AFA30014   SW V1, 20(SP)
9D010744  0F400A50   JAL __intscan
9D010748  24060001   ADDIU A2, ZERO, 1
9D01074C  00402025   OR A0, V0, ZERO
9D010750  12200008   BEQ S1, ZERO, strtox
9D010754  00602825   OR A1, V1, ZERO
9D010758  8FA20058   LW V0, 88(SP)
9D01075C  8FA30054   LW V1, 84(SP)
9D010760  00621823   SUBU V1, V1, V0
9D010764  8FA20070   LW V0, 112(SP)
9D010768  00621821   ADDU V1, V1, V0
9D01076C  02038021   ADDU S0, S0, V1
9D010770  AE300000   SW S0, 0(S1)
9D010774  8FBF008C   LW RA, 140(SP)
9D010778  00801025   OR V0, A0, ZERO
9D01077C  00A01825   OR V1, A1, ZERO
9D010780  8FB20088   LW S2, 136(SP)
9D010784  8FB10084   LW S1, 132(SP)
9D010788  8FB00080   LW S0, 128(SP)
9D01078C  03E00008   JR RA
9D010790  27BD0090   ADDIU SP, SP, 144
9D0133FC  27BDFFE0   ADDIU SP, SP, -32
9D013400  2402FFFF   ADDIU V0, ZERO, -1
9D013404  00001825   OR V1, ZERO, ZERO
9D013408  AFA20010   SW V0, 16(SP)
9D01340C  AFA30014   SW V1, 20(SP)
9D013410  AFBF001C   SW RA, 28(SP)
9D013414  0F4041B6   JAL strtox
9D013418  00000000   NOP
9D01341C  8FBF001C   LW RA, 28(SP)
9D013420  03E00008   JR RA
9D013424  27BD0020   ADDIU SP, SP, 32
---  /data01/build/bamboo/xml-data/build-dir/M32DEV-GMB34-JOB1/src/xc32-musl-stdlib/musl/musl-1.1.18/src/stdlib/atoi.c
-----*  Optimizer-Generated Procedural Abstractions  *----------------------------------------------
9D011B98  24050020   ADDIU A1, ZERO, 32
9D011B9C  80820000   LB V0, 0(A0)
9D011BB4  2403002B   ADDIU V1, ZERO, 43
9D011BB8  1043000A   BEQ V0, V1, 0x9D011BE4
9D011BBC  2403002D   ADDIU V1, ZERO, 45
9D011BC0  14430003   BNE V0, V1, 0x9D011BD0
9D011BC4  00002825   OR A1, ZERO, ZERO
9D011BC8  24050001   ADDIU A1, ZERO, 1
9D011BCC  24840001   ADDIU A0, A0, 1
9D011BD0  00001025   OR V0, ZERO, ZERO
9D011BD4  10000007   BEQ ZERO, ZERO, 0x9D011BF4
9D011BD8  2407000A   ADDIU A3, ZERO, 10
9D011BDC  1000FFEF   BEQ ZERO, ZERO, 0x9D011B9C
9D011BE0  24840001   ADDIU A0, A0, 1
9D011BE4  1000FFF9   BEQ ZERO, ZERO, 0x9D011BCC
9D011BE8  00002825   OR A1, ZERO, ZERO
9D011BEC  24840001   ADDIU A0, A0, 1
9D011BF0  00431023   SUBU V0, V0, V1
9D011BF4  80830000   LB V1, 0(A0)
9D011BF8  2463FFD0   ADDIU V1, V1, -48
9D011BFC  2C66000A   SLTIU A2, V1, 10
9D011C00  54C0FFFA   BNEL A2, ZERO, 0x9D011BEC
9D011C04  70471002   MUL V0, V0, A3
9D011C08  50A00001   BEQL A1, ZERO, 0x9D011C10
9D011C0C  00021023   SUBU V0, ZERO, V0
9D011C10  03E00008   JR RA
9D011C14  00000000   NOP
---  /data01/build/bamboo/xml-data/build-dir/M32DEV-GMB34-JOB1/src/xc32-musl-stdlib/musl/musl-1.1.18/src/stdlib/abs.c
-----*  Optimizer-Generated Procedural Abstractions  *----------------------------------------------
9D013D08  000417C3   SRA V0, A0, 31
9D013D0C  00442026   XOR A0, V0, A0
9D013D10  03E00008   JR RA
9D013D14  00821023   SUBU V0, A0, V0
---  /data01/build/bamboo/xml-data/build-dir/M32DEV-GMB34-JOB1/src/xc32-musl-stdlib/musl/musl-1.1.18/src/stdio/snprintf.c
-----*  Optimizer-Generated Procedural Abstractions  *----------------------------------------------
9D013740  27BDFFE0   ADDIU SP, SP, -32
9D013744  AFA7002C   SW A3, 44(SP)
9D013748  27A7002C   ADDIU A3, SP, 44
9D01374C  AFBF001C   SW RA, 28(SP)
9D013750  0F4041E5   JAL vsnprintf
9D013754  AFA70010   SW A3, 16(SP)
9D013758  8FBF001C   LW RA, 28(SP)
9D01375C  03E00008   JR RA
9D013760  27BD0020   ADDIU SP, SP, 32
---  /data01/build/bamboo/xml-data/build-dir/M32DEV-GMB34-JOB1/src/xc32-musl-stdlib/musl/musl-1.1.18/src/stdio/mchp/vsnprintf.c
-----*  Optimizer-Generated Procedural Abstractions  *----------------------------------------------
9D010794  27BDFF68   ADDIU SP, SP, -152
9D010798  AFB2008C   SW S2, 140(SP)
9D01079C  AFB10088   SW S1, 136(SP)
9D0107A0  AFB00084   SW S0, 132(SP)
9D0107A4  00A08825   OR S1, A1, ZERO
9D0107A8  00808025   OR S0, A0, ZERO
9D0107AC  00C09025   OR S2, A2, ZERO
9D0107B0  00002825   OR A1, ZERO, ZERO
9D0107B4  24060054   ADDIU A2, ZERO, 84
9D0107B8  27A40024   ADDIU A0, SP, 36
9D0107BC  AFB30090   SW S3, 144(SP)
9D0107C0  AFBF0094   SW RA, 148(SP)
9D0107C4  0F4043C8   JAL memset
9D0107C8  00E09825   OR S3, A3, ZERO
9D0107CC  2402FFFF   ADDIU V0, ZERO, -1
9D0107D0  AFA20010   SW V0, 16(SP)
9D0107D4  24020102   ADDIU V0, ZERO, 258
9D0107D8  16000002   BNE S0, ZERO, 0x9D0107E4
9D0107DC  AFA20014   SW V0, 20(SP)
9D0107E0  27B00078   ADDIU S0, SP, 120
9D0107E4  AFB00018   SW S0, 24(SP)
9D0107E8  AFB1001C   SW S1, 28(SP)
9D0107EC  12200002   BEQ S1, ZERO, 0x9D0107F8
9D0107F0  00001025   OR V0, ZERO, ZERO
9D0107F4  2622FFFF   ADDIU V0, S1, -1
9D0107F8  0621000C   BGEZ S1, 0x9D01082C
9D0107FC  AFA20020   SW V0, 32(SP)
9D010800  3C028000   LUI V0, -32768
9D010804  2403004F   ADDIU V1, ZERO, 79
9D010808  AC432528   SW V1, 9512(V0)
9D01080C  2402FFFF   ADDIU V0, ZERO, -1
9D010810  8FBF0094   LW RA, 148(SP)
9D010814  8FB30090   LW S3, 144(SP)
9D010818  8FB2008C   LW S2, 140(SP)
9D01081C  8FB10088   LW S1, 136(SP)
9D010820  8FB00084   LW S0, 132(SP)
9D010824  03E00008   JR RA
9D010828  27BD0098   ADDIU SP, SP, 152
9D01082C  A2000000   SB ZERO, 0(S0)
9D010830  02603025   OR A2, S3, ZERO
9D010834  02402825   OR A1, S2, ZERO
9D010838  27A40010   ADDIU A0, SP, 16
9D01083C  AFB00028   SW S0, 40(SP)
9D010840  0F404B92   JAL vfprintf
9D010844  AFB00024   SW S0, 36(SP)
9D010848  1000FFF2   BEQ ZERO, ZERO, 0x9D010814
9D01084C  8FBF0094   LW RA, 148(SP)
---  /data01/build/bamboo/xml-data/build-dir/M32DEV-GMB34-JOB1/src/xc32-musl-stdlib/musl/musl-1.1.18/src/stdio/mchp/vfprintf.c
-----*  Optimizer-Generated Procedural Abstractions  *----------------------------------------------
00000000  00000000   NOP
00000004  00000000   NOP
00000008  00000000   NOP
0000000C  00000000   NOP
00000010  00000000   NOP
00000018  00000000   NOP
9D012E48  27BDFFE0   ADDIU SP, SP, -32
9D012E4C  AFB00018   SW S0, 24(SP)
9D012E50  AFA60010   SW A2, 16(SP)
9D012E54  00808025   OR S0, A0, ZERO
9D012E58  AFBF001C   SW RA, 28(SP)
9D012E5C  0F401431   JAL __printf_core
9D012E60  27A60010   ADDIU A2, SP, 16
9D012E64  8E030004   LW V1, 4(S0)
9D012E68  8FBF001C   LW RA, 28(SP)
9D012E6C  2404FFFF   ADDIU A0, ZERO, -1
9D012E70  30630010   ANDI V1, V1, 16
9D012E74  0083100B   MOVN V0, A0, V1
9D012E78  8FB00018   LW S0, 24(SP)
9D012E7C  03E00008   JR RA
9D012E80  27BD0020   ADDIU SP, SP, 32
---  /data01/build/bamboo/xml-data/build-dir/M32DEV-GMB34-JOB1/src/xc32-musl-stdlib/musl/musl-1.1.18/src/stdio/mchp/__stdio_exit.c
-----*  Optimizer-Generated Procedural Abstractions  *----------------------------------------------
00000000  00000000   NOP
00000008  00000000   NOP
00000010  00000000   NOP
00000020  00000000   NOP
00000030  00000000   NOP
00000040  00000000   NOP
---  /data01/build/bamboo/xml-data/build-dir/M32DEV-GMB34-JOB1/src/xc32-musl-stdlib/musl/musl-1.1.18/src/stdio/mchp/__printf_core.c
-----*  Optimizer-Generated Procedural Abstractions  *----------------------------------------------
00000000  00000000   NOP
9D0050C4  27BDFF18   ADDIU SP, SP, -232
9D0050C8  AFB500D8   SW S5, 216(SP)
9D0050CC  3C159D01   LUI S5, -25343
9D0050D0  AFB600DC   SW S6, 220(SP)
9D0050D4  AFB400D4   SW S4, 212(SP)
9D0050D8  AFB300D0   SW S3, 208(SP)
9D0050DC  AFB200CC   SW S2, 204(SP)
9D0050E0  AFB100C8   SW S1, 200(SP)
9D0050E4  AFBF00E4   SW RA, 228(SP)
9D0050E8  AFB700E0   SW S7, 224(SP)
9D0050EC  AFB000C4   SW S0, 196(SP)
9D0050F0  00809025   OR S2, A0, ZERO
9D0050F4  00C08825   OR S1, A2, ZERO
9D0050F8  AFA500B0   SW A1, 176(SP)
9D0050FC  00009825   OR S3, ZERO, ZERO
9D005100  27B60010   ADDIU S6, SP, 16
9D005104  24140025   ADDIU S4, ZERO, 37
9D005108  26B53DD4   ADDIU S5, S5, 15828
9D00510C  8FA500B0   LW A1, 176(SP)
9D005110  80A20000   LB V0, 0(A1)
9D005114  104000E5   BEQ V0, ZERO, 0x9D0054AC
9D005118  2402FFFF   ADDIU V0, ZERO, -1
9D00511C  AFA20094   SW V0, 148(SP)
9D005120  24020080   ADDIU V0, ZERO, 128
9D005124  AFA00090   SW ZERO, 144(SP)
9D005128  AFA00098   SW ZERO, 152(SP)
9D00512C  AFB6009C   SW S6, 156(SP)
9D005130  AFA200A0   SW V0, 160(SP)
9D005134  00008025   OR S0, ZERO, ZERO
9D005138  00B01021   ADDU V0, A1, S0
9D00513C  80420000   LB V0, 0(V0)
9D005140  10400003   BEQ V0, ZERO, 0x9D005150
9D005144  00000000   NOP
9D005148  5454FFFB   BNEL V0, S4, 0x9D005138
9D00514C  26100001   ADDIU S0, S0, 1
9D005150  12000008   BEQ S0, ZERO, 0x9D005174
9D005154  8FB700B0   LW S7, 176(SP)
9D005158  02003025   OR A2, S0, ZERO
9D00515C  0F404900   JAL __string_out
9D005160  02402025   OR A0, S2, ZERO
9D005164  8FA200B0   LW V0, 176(SP)
9D005168  00501021   ADDU V0, V0, S0
9D00516C  AFA200B0   SW V0, 176(SP)
9D005170  8FB700B0   LW S7, 176(SP)
9D005174  82E20000   LB V0, 0(S7)
9D005178  545400C5   BNEL V0, S4, 0x9D005490
9D00517C  02708021   ADDU S0, S3, S0
9D005180  26F70001   ADDIU S7, S7, 1
9D005184  AFB700B0   SW S7, 176(SP)
9D005188  2405002B   ADDIU A1, ZERO, 43
9D00518C  2406002D   ADDIU A2, ZERO, 45
9D005190  24030030   ADDIU V1, ZERO, 48
9D005194  24070020   ADDIU A3, ZERO, 32
9D005198  24080023   ADDIU T0, ZERO, 35
9D00519C  8FA400B0   LW A0, 176(SP)
9D0051A0  80820000   LB V0, 0(A0)
9D0051A4  5045001B   BEQL V0, A1, 0x9D005214
9D0051A8  8FA20090   LW V0, 144(SP)
9D0051AC  2849002C   SLTI T1, V0, 44
9D0051B0  1120001E   BEQ T1, ZERO, __printf_core::vfpfcnvrt
9D0051B4  00000000   NOP
9D0051B8  50470018   BEQL V0, A3, 0x9D00521C
9D0051BC  8FA20090   LW V0, 144(SP)
9D0051C0  50480018   BEQL V0, T0, 0x9D005224
9D0051C4  8FA20090   LW V0, 144(SP)
9D0051C8  2403002A   ADDIU V1, ZERO, 42
9D0051CC  5043001E   BEQL V0, V1, __printf_core::vfpfcnvrt
9D0051D0  8E220000   LW V0, 0(S1)
9D0051D4  0F4046E6   JAL atoi
9D0051D8  00000000   NOP
9D0051DC  AFA20098   SW V0, 152(SP)
9D0051E0  8FA300B0   LW V1, 176(SP)
9D0051E4  80620000   LB V0, 0(V1)
9D0051E8  2442FFD0   ADDIU V0, V0, -48
9D0051EC  2C42000A   SLTIU V0, V0, 10
9D0051F0  10400021   BEQ V0, ZERO, 0x9D005278
9D0051F4  24630001   ADDIU V1, V1, 1
9D0051F8  1000FFF9   BEQ ZERO, ZERO, 0x9D0051E0
9D0051FC  AFA300B0   SW V1, 176(SP)
9D005200  34420001   ORI V0, V0, 1
9D005204  24840001   ADDIU A0, A0, 1
9D005208  AFA20090   SW V0, 144(SP)
9D00520C  1000FFE3   BEQ ZERO, ZERO, 0x9D00519C
9D005210  AFA400B0   SW A0, 176(SP)
9D005214  1000FFFB   BEQ ZERO, ZERO, 0x9D005204
9D005218  34420004   ORI V0, V0, 4
9D00521C  1000FFF9   BEQ ZERO, ZERO, 0x9D005204
9D005220  34420008   ORI V0, V0, 8
9D005224  1000FFF7   BEQ ZERO, ZERO, 0x9D005204
9D005228  34420010   ORI V0, V0, 16
9D00522C  5046FFF4   BEQL V0, A2, __printf_core::vfpfcnvrt
9D005230  8FA20090   LW V0, 144(SP)
9D005234  5443FFE5   BNEL V0, V1, 0x9D0051CC
9D005238  2403002A   ADDIU V1, ZERO, 42
9D00523C  8FA20090   LW V0, 144(SP)
9D005240  1000FFF0   BEQ ZERO, ZERO, 0x9D005204
9D005244  34420002   ORI V0, V0, 2
9D005248  24840001   ADDIU A0, A0, 1
9D00524C  AFA400B0   SW A0, 176(SP)
9D005250  24430004   ADDIU V1, V0, 4
9D005254  8C420000   LW V0, 0(V0)
9D005258  AE230000   SW V1, 0(S1)
9D00525C  04410006   BGEZ V0, 0x9D005278
9D005260  AFA20098   SW V0, 152(SP)
9D005264  8FA30090   LW V1, 144(SP)
9D005268  00021023   SUBU V0, ZERO, V0
9D00526C  AFA20098   SW V0, 152(SP)
9D005270  38630001   XORI V1, V1, 1
9D005274  AFA30090   SW V1, 144(SP)
9D005278  8FA20090   LW V0, 144(SP)
9D00527C  30430001   ANDI V1, V0, 1
9D005280  50600004   BEQL V1, ZERO, 0x9D005294
9D005284  8FA200B0   LW V0, 176(SP)
9D005288  7C020844   INS V0, ZERO, 1, 1
9D00528C  AFA20090   SW V0, 144(SP)
9D005290  8FA200B0   LW V0, 176(SP)
9D005294  2403002E   ADDIU V1, ZERO, 46
9D005298  80440000   LB A0, 0(V0)
9D00529C  1483000D   BNE A0, V1, 0x9D0052D4
9D0052A0  24440001   ADDIU A0, V0, 1
9D0052A4  AFA00094   SW ZERO, 148(SP)
9D0052A8  AFA400B0   SW A0, 176(SP)
9D0052AC  80450001   LB A1, 1(V0)
9D0052B0  2403002A   ADDIU V1, ZERO, 42
9D0052B4  14A30024   BNE A1, V1, __printf_core::vfpfcnvrt
9D0052B8  24420002   ADDIU V0, V0, 2
9D0052BC  AFA200B0   SW V0, 176(SP)
9D0052C0  8E220000   LW V0, 0(S1)
9D0052C4  24430004   ADDIU V1, V0, 4
9D0052C8  8C420000   LW V0, 0(V0)
9D0052CC  AE230000   SW V1, 0(S1)
9D0052D0  AFA20094   SW V0, 148(SP)
9D0052D4  0F404917   JAL __fmt_state
9D0052D8  27A400B0   ADDIU A0, SP, 176
9D0052DC  AFA200B8   SW V0, 184(SP)
9D0052E0  8FA200B0   LW V0, 176(SP)
9D0052E4  0F404E54   JAL tolower
9D0052E8  80440000   LB A0, 0(V0)
9D0052EC  24030069   ADDIU V1, ZERO, 105
9D0052F0  1043007A   BEQ V0, V1, __printf_core::vfpfcnvrt
9D0052F4  8FA500B8   LW A1, 184(SP)
9D0052F8  2843006A   SLTI V1, V0, 106
9D0052FC  1060002F   BEQ V1, ZERO, __printf_core::vfpfcnvrt
9D005300  24030070   ADDIU V1, ZERO, 112
9D005304  24030063   ADDIU V1, ZERO, 99
9D005308  104300BC   BEQ V0, V1, __printf_core::vfpfcnvrt
9D00530C  28430064   SLTI V1, V0, 100
9D005310  10600018   BEQ V1, ZERO, __printf_core::vfpfcnvrt
9D005314  24030064   ADDIU V1, ZERO, 100
9D005318  105400C5   BEQ V0, S4, __printf_core::vfpfcnvrt
9D00531C  24030061   ADDIU V1, ZERO, 97
9D005320  5043004E   BEQL V0, V1, __printf_core::vfpfcnvrt
9D005324  02203025   OR A2, S1, ZERO
9D005328  24020025   ADDIU V0, ZERO, 37
9D00532C  A3A200A8   SB V0, 168(SP)
9D005330  2402FFFF   ADDIU V0, ZERO, -1
9D005334  AFB700B0   SW S7, 176(SP)
9D005338  AFA00090   SW ZERO, 144(SP)
9D00533C  AFA00098   SW ZERO, 152(SP)
9D005340  100000B8   BEQ ZERO, ZERO, 0x9D005624
9D005344  AFA20094   SW V0, 148(SP)
9D005348  0F4046E6   JAL atoi
9D00534C  00000000   NOP
9D005350  AFA20094   SW V0, 148(SP)
9D005354  8FA300B0   LW V1, 176(SP)
9D005358  80620000   LB V0, 0(V1)
9D00535C  2442FFD0   ADDIU V0, V0, -48
9D005360  2C42000A   SLTIU V0, V0, 10
9D005364  1040FFDB   BEQ V0, ZERO, 0x9D0052D4
9D005368  24630001   ADDIU V1, V1, 1
9D00536C  1000FFF9   BEQ ZERO, ZERO, 0x9D005354
9D005370  AFA300B0   SW V1, 176(SP)
9D005374  10430059   BEQ V0, V1, __printf_core::vfpfcnvrt
9D005378  28420068   SLTI V0, V0, 104
9D00537C  1040FFEB   BEQ V0, ZERO, 0x9D00532C
9D005380  24020025   ADDIU V0, ZERO, 37
9D005384  02203025   OR A2, S1, ZERO
9D005388  0F404AA2   JAL __pop_float
9D00538C  27A400A8   ADDIU A0, SP, 168
9D005390  10400097   BEQ V0, ZERO, 0x9D0055F0
9D005394  8FA200B0   LW V0, 176(SP)
9D005398  27A600A8   ADDIU A2, SP, 168
9D00539C  27A50090   ADDIU A1, SP, 144
9D0053A0  24430001   ADDIU V1, V0, 1
9D0053A4  AFA300B0   SW V1, 176(SP)
9D0053A8  80470000   LB A3, 0(V0)
9D0053AC  0F400C12   JAL __fmt_fp
9D0053B0  02402025   OR A0, S2, ZERO
9D0053B4  10000035   BEQ ZERO, ZERO, 0x9D00548C
9D0053B8  02028021   ADDU S0, S0, V0
9D0053BC  10430072   BEQ V0, V1, __printf_core::vfpfcnvrt
9D0053C0  28430071   SLTI V1, V0, 113
9D0053C4  10600014   BEQ V1, ZERO, __printf_core::vfpfcnvrt
9D0053C8  24030075   ADDIU V1, ZERO, 117
9D0053CC  2403006E   ADDIU V1, ZERO, 110
9D0053D0  10430082   BEQ V0, V1, __printf_core::vfpfcnvrt
9D0053D4  2403006F   ADDIU V1, ZERO, 111
9D0053D8  1443FFD4   BNE V0, V1, 0x9D00532C
9D0053DC  24020025   ADDIU V0, ZERO, 37
9D0053E0  02203825   OR A3, S1, ZERO
9D0053E4  00003025   OR A2, ZERO, ZERO
9D0053E8  0F4032E6   JAL __pop_int
9D0053EC  27A400A8   ADDIU A0, SP, 168
9D0053F0  1040007F   BEQ V0, ZERO, 0x9D0055F0
9D0053F4  8FA200B0   LW V0, 176(SP)
9D0053F8  27A600A8   ADDIU A2, SP, 168
9D0053FC  27A50090   ADDIU A1, SP, 144
9D005400  24420001   ADDIU V0, V0, 1
9D005404  02402025   OR A0, S2, ZERO
9D005408  0F403DC5   JAL __fmt_o
9D00540C  AFA200B0   SW V0, 176(SP)
9D005410  1000001E   BEQ ZERO, ZERO, 0x9D00548C
9D005414  02028021   ADDU S0, S0, V0
9D005418  1043003E   BEQ V0, V1, __printf_core::vfpfcnvrt
9D00541C  24030078   ADDIU V1, ZERO, 120
9D005420  1043004A   BEQ V0, V1, __printf_core::vfpfcnvrt
9D005424  24030073   ADDIU V1, ZERO, 115
9D005428  1443FFC0   BNE V0, V1, 0x9D00532C
9D00542C  24020025   ADDIU V0, ZERO, 37
9D005430  24020080   ADDIU V0, ZERO, 128
9D005434  14A2006E   BNE A1, V0, 0x9D0055F0
9D005438  8FA200B0   LW V0, 176(SP)
9D00543C  00003825   OR A3, ZERO, ZERO
9D005440  24420001   ADDIU V0, V0, 1
9D005444  AFA200B0   SW V0, 176(SP)
9D005448  8E220000   LW V0, 0(S1)
9D00544C  24430004   ADDIU V1, V0, 4
9D005450  AE230000   SW V1, 0(S1)
9D005454  1000005C   BEQ ZERO, ZERO, 0x9D0055C8
9D005458  8C460000   LW A2, 0(V0)
9D00545C  0F404AA2   JAL __pop_float
9D005460  27A400A8   ADDIU A0, SP, 168
9D005464  10400062   BEQ V0, ZERO, 0x9D0055F0
9D005468  8FA200B0   LW V0, 176(SP)
9D00546C  27A600A8   ADDIU A2, SP, 168
9D005470  27A50090   ADDIU A1, SP, 144
9D005474  24430001   ADDIU V1, V0, 1
9D005478  AFA300B0   SW V1, 176(SP)
9D00547C  80470000   LB A3, 0(V0)
9D005480  0F4012A1   JAL __fmt_a
9D005484  02402025   OR A0, S2, ZERO
9D005488  02028021   ADDU S0, S0, V0
9D00548C  02708021   ADDU S0, S3, S0
9D005490  0213982A   SLT S3, S0, S3
9D005494  1260FF1D   BEQ S3, ZERO, 0x9D00510C
9D005498  02009825   OR S3, S0, ZERO
9D00549C  3C028000   LUI V0, -32768
9D0054A0  2403004F   ADDIU V1, ZERO, 79
9D0054A4  AC432528   SW V1, 9512(V0)
9D0054A8  2413FFFF   ADDIU S3, ZERO, -1
9D0054AC  8FBF00E4   LW RA, 228(SP)
9D0054B0  02601025   OR V0, S3, ZERO
9D0054B4  8FB700E0   LW S7, 224(SP)
9D0054B8  8FB600DC   LW S6, 220(SP)
9D0054BC  8FB500D8   LW S5, 216(SP)
9D0054C0  8FB400D4   LW S4, 212(SP)
9D0054C4  8FB300D0   LW S3, 208(SP)
9D0054C8  8FB200CC   LW S2, 204(SP)
9D0054CC  8FB100C8   LW S1, 200(SP)
9D0054D0  8FB000C4   LW S0, 196(SP)
9D0054D4  03E00008   JR RA
9D0054D8  27BD00E8   ADDIU SP, SP, 232
9D0054DC  02203825   OR A3, S1, ZERO
9D0054E0  24060001   ADDIU A2, ZERO, 1
9D0054E4  0F4032E6   JAL __pop_int
9D0054E8  27A400A8   ADDIU A0, SP, 168
9D0054EC  10400040   BEQ V0, ZERO, 0x9D0055F0
9D0054F0  8FA200B0   LW V0, 176(SP)
9D0054F4  27A600A8   ADDIU A2, SP, 168
9D0054F8  27A50090   ADDIU A1, SP, 144
9D0054FC  24420001   ADDIU V0, V0, 1
9D005500  02402025   OR A0, S2, ZERO
9D005504  0F403567   JAL __fmt_d
9D005508  AFA200B0   SW V0, 176(SP)
9D00550C  1000FFDF   BEQ ZERO, ZERO, 0x9D00548C
9D005510  02028021   ADDU S0, S0, V0
9D005514  02203825   OR A3, S1, ZERO
9D005518  00003025   OR A2, ZERO, ZERO
9D00551C  0F4032E6   JAL __pop_int
9D005520  27A400A8   ADDIU A0, SP, 168
9D005524  10400032   BEQ V0, ZERO, 0x9D0055F0
9D005528  8FA200B0   LW V0, 176(SP)
9D00552C  27A600A8   ADDIU A2, SP, 168
9D005530  27A50090   ADDIU A1, SP, 144
9D005534  24420001   ADDIU V0, V0, 1
9D005538  02402025   OR A0, S2, ZERO
9D00553C  0F404187   JAL __fmt_u
9D005540  AFA200B0   SW V0, 176(SP)
9D005544  1000FFD1   BEQ ZERO, ZERO, 0x9D00548C
9D005548  02028021   ADDU S0, S0, V0
9D00554C  02203825   OR A3, S1, ZERO
9D005550  00003025   OR A2, ZERO, ZERO
9D005554  0F4032E6   JAL __pop_int
9D005558  27A400A8   ADDIU A0, SP, 168
9D00555C  10400024   BEQ V0, ZERO, 0x9D0055F0
9D005560  8FA200B0   LW V0, 176(SP)
9D005564  24430001   ADDIU V1, V0, 1
9D005568  AFA300B0   SW V1, 176(SP)
9D00556C  80470000   LB A3, 0(V0)
9D005570  27A600A8   ADDIU A2, SP, 168
9D005574  27A50090   ADDIU A1, SP, 144
9D005578  0F4023B0   JAL __fmt_x
9D00557C  02402025   OR A0, S2, ZERO
9D005580  1000FFC2   BEQ ZERO, ZERO, 0x9D00548C
9D005584  02028021   ADDU S0, S0, V0
9D005588  02203825   OR A3, S1, ZERO
9D00558C  00003025   OR A2, ZERO, ZERO
9D005590  240500F0   ADDIU A1, ZERO, 240
9D005594  0F4032E6   JAL __pop_int
9D005598  27A400A8   ADDIU A0, SP, 168
9D00559C  10400014   BEQ V0, ZERO, 0x9D0055F0
9D0055A0  8FA200B0   LW V0, 176(SP)
9D0055A4  8FA300AC   LW V1, 172(SP)
9D0055A8  24420001   ADDIU V0, V0, 1
9D0055AC  AFA200B0   SW V0, 176(SP)
9D0055B0  8FA200A8   LW V0, 168(SP)
9D0055B4  00431025   OR V0, V0, V1
9D0055B8  1440FFED   BNE V0, ZERO, 0x9D005570
9D0055BC  24070078   ADDIU A3, ZERO, 120
9D0055C0  00003825   OR A3, ZERO, ZERO
9D0055C4  02A03025   OR A2, S5, ZERO
9D0055C8  27A50090   ADDIU A1, SP, 144
9D0055CC  0F4043F2   JAL __fmt_s
9D0055D0  02402025   OR A0, S2, ZERO
9D0055D4  1000FFAD   BEQ ZERO, ZERO, 0x9D00548C
9D0055D8  02028021   ADDU S0, S0, V0
9D0055DC  02203825   OR A3, S1, ZERO
9D0055E0  02703021   ADDU A2, S3, S0
9D0055E4  0F403EAF   JAL __pop_ptr
9D0055E8  27A400A8   ADDIU A0, SP, 168
9D0055EC  8FA200B0   LW V0, 176(SP)
9D0055F0  24420001   ADDIU V0, V0, 1
9D0055F4  1000FFA5   BEQ ZERO, ZERO, 0x9D00548C
9D0055F8  AFA200B0   SW V0, 176(SP)
9D0055FC  24020080   ADDIU V0, ZERO, 128
9D005600  14A2FFFB   BNE A1, V0, 0x9D0055F0
9D005604  8FA200B0   LW V0, 176(SP)
9D005608  24420001   ADDIU V0, V0, 1
9D00560C  AFA200B0   SW V0, 176(SP)
9D005610  8E220000   LW V0, 0(S1)
9D005614  24430004   ADDIU V1, V0, 4
9D005618  8C420000   LW V0, 0(V0)
9D00561C  AE230000   SW V1, 0(S1)
9D005620  A3A200A8   SB V0, 168(SP)
9D005624  24070001   ADDIU A3, ZERO, 1
9D005628  1000FFE7   BEQ ZERO, ZERO, 0x9D0055C8
9D00562C  27A600A8   ADDIU A2, SP, 168
9D005630  24020080   ADDIU V0, ZERO, 128
9D005634  14A2FFEE   BNE A1, V0, 0x9D0055F0
9D005638  8FA200B0   LW V0, 176(SP)
9D00563C  A3B400A8   SB S4, 168(SP)
9D005640  24420001   ADDIU V0, V0, 1
9D005644  1000FFF7   BEQ ZERO, ZERO, 0x9D005624
9D005648  AFA200B0   SW V0, 176(SP)
9D00564C  01010101   MOVT ZERO, T0, 0
9D00F214  27BDFFC0   ADDIU SP, SP, -64
9D00F218  AFB40030   SW S4, 48(SP)
9D00F21C  8FB40050   LW S4, 80(SP)
9D00F220  AFB50034   SW S5, 52(SP)
9D00F224  AFB3002C   SW S3, 44(SP)
9D00F228  32940001   ANDI S4, S4, 1
9D00F22C  AFB20028   SW S2, 40(SP)
9D00F230  AFB10024   SW S1, 36(SP)
9D00F234  AFB00020   SW S0, 32(SP)
9D00F238  AFBF003C   SW RA, 60(SP)
9D00F23C  AFB60038   SW S6, 56(SP)
9D00F240  00809825   OR S3, A0, ZERO
9D00F244  00A0A825   OR S5, A1, ZERO
9D00F248  00C08825   OR S1, A2, ZERO
9D00F24C  00E09025   OR S2, A3, ZERO
9D00F250  16800024   BNE S4, ZERO, 0x9D00F2E4
9D00F254  00C7802A   SLT S0, A2, A3
9D00F258  12000023   BEQ S0, ZERO, 0x9D00F2E8
9D00F25C  02203025   OR A2, S1, ZERO
9D00F260  02518023   SUBU S0, S2, S1
9D00F264  2E060011   SLTIU A2, S0, 17
9D00F268  24020010   ADDIU V0, ZERO, 16
9D00F26C  0206100B   MOVN V0, S0, A2
9D00F270  00403025   OR A2, V0, ZERO
9D00F274  24050020   ADDIU A1, ZERO, 32
9D00F278  27A40010   ADDIU A0, SP, 16
9D00F27C  0F4043C8   JAL memset
9D00F280  0200B025   OR S6, S0, ZERO
9D00F284  2A020010   SLTI V0, S0, 16
9D00F288  1040001E   BEQ V0, ZERO, 0x9D00F304
9D00F28C  24060010   ADDIU A2, ZERO, 16
9D00F290  32C6000F   ANDI A2, S6, 15
9D00F294  27A50010   ADDIU A1, SP, 16
9D00F298  0F404900   JAL __string_out
9D00F29C  02602025   OR A0, S3, ZERO
9D00F2A0  16800006   BNE S4, ZERO, 0x9D00F2BC
9D00F2A4  8FBF003C   LW RA, 60(SP)
9D00F2A8  02203025   OR A2, S1, ZERO
9D00F2AC  02A02825   OR A1, S5, ZERO
9D00F2B0  0F404900   JAL __string_out
9D00F2B4  02602025   OR A0, S3, ZERO
9D00F2B8  8FBF003C   LW RA, 60(SP)
9D00F2BC  02401025   OR V0, S2, ZERO
9D00F2C0  8FB60038   LW S6, 56(SP)
9D00F2C4  8FB50034   LW S5, 52(SP)
9D00F2C8  8FB40030   LW S4, 48(SP)
9D00F2CC  8FB3002C   LW S3, 44(SP)
9D00F2D0  8FB20028   LW S2, 40(SP)
9D00F2D4  8FB10024   LW S1, 36(SP)
9D00F2D8  8FB00020   LW S0, 32(SP)
9D00F2DC  03E00008   JR RA
9D00F2E0  27BD0040   ADDIU SP, SP, 64
9D00F2E4  02203025   OR A2, S1, ZERO
9D00F2E8  02A02825   OR A1, S5, ZERO
9D00F2EC  0F404900   JAL __string_out
9D00F2F0  02602025   OR A0, S3, ZERO
9D00F2F4  1600FFDB   BNE S0, ZERO, 0x9D00F264
9D00F2F8  02518023   SUBU S0, S2, S1
9D00F2FC  1000FFEE   BEQ ZERO, ZERO, 0x9D00F2B8
9D00F300  02209025   OR S2, S1, ZERO
9D00F304  27A50010   ADDIU A1, SP, 16
9D00F308  0F404900   JAL __string_out
9D00F30C  02602025   OR A0, S3, ZERO
9D00F310  1000FFDC   BEQ ZERO, ZERO, 0x9D00F284
9D00F314  2610FFF0   ADDIU S0, S0, -16
9D012400  8C820010   LW V0, 16(A0)
9D012404  27BDFFE0   ADDIU SP, SP, -32
9D012408  AFB00014   SW S0, 20(SP)
9D01240C  00808025   OR S0, A0, ZERO
9D012410  8C840014   LW A0, 20(A0)
9D012414  AFB10018   SW S1, 24(SP)
9D012418  00C2882B   SLTU S1, A2, V0
9D01241C  0051300A   MOVZ A2, V0, S1
9D012420  AFBF001C   SW RA, 28(SP)
9D012424  0F40345C   JAL memcpy
9D012428  00C08825   OR S1, A2, ZERO
9D01242C  8E020014   LW V0, 20(S0)
9D012430  8E060010   LW A2, 16(S0)
9D012434  00511021   ADDU V0, V0, S1
9D012438  00D18823   SUBU S1, A2, S1
9D01243C  AE110010   SW S1, 16(S0)
9D012440  AE020014   SW V0, 20(S0)
9D012444  A0400000   SB ZERO, 0(V0)
9D012448  8FBF001C   LW RA, 28(SP)
9D01244C  8FB10018   LW S1, 24(SP)
9D012450  8FB00014   LW S0, 20(SP)
9D012454  03E00008   JR RA
9D012458  27BD0020   ADDIU SP, SP, 32
9D01245C  3C069D01   LUI A2, -25343
9D012460  00001025   OR V0, ZERO, ZERO
9D012464  24C63AC0   ADDIU A2, A2, 15040
9D012468  00021840   SLL V1, V0, 1
9D01246C  00661821   ADDU V1, V1, A2
9D012470  80670000   LB A3, 0(V1)
9D012474  54E00003   BNEL A3, ZERO, 0x9D012484
9D012478  8C850000   LW A1, 0(A0)
9D01247C  03E00008   JR RA
9D012480  90620001   LBU V0, 1(V1)
9D012484  80A80000   LB T0, 0(A1)
9D012488  15070009   BNE T0, A3, 0x9D0124B0
9D01248C  24420001   ADDIU V0, V0, 1
9D012490  90620001   LBU V0, 1(V1)
9D012494  24A50001   ADDIU A1, A1, 1
9D012498  AC850000   SW A1, 0(A0)
9D01249C  2C43000B   SLTIU V1, V0, 11
9D0124A0  1460FFF2   BNE V1, ZERO, 0x9D01246C
9D0124A4  00021840   SLL V1, V0, 1
9D0124A8  03E00008   JR RA
9D0124AC  00000000   NOP
9D0124B0  1000FFFA   BEQ ZERO, ZERO, 0x9D01249C
9D0124B4  304200FF   ANDI V0, V0, 255
---  /data01/build/bamboo/xml-data/build-dir/M32DEV-GMB34-JOB1/src/xc32-musl-stdlib/musl/musl-1.1.18/src/stdio/mchp/__pop_ptr.c
-----*  Optimizer-Generated Procedural Abstractions  *----------------------------------------------
9D00FABC  24020084   ADDIU V0, ZERO, 132
9D00FAF8  8CE20000   LW V0, 0(A3)
9D00FAFC  24430004   ADDIU V1, V0, 4
9D00FB00  ACE30000   SW V1, 0(A3)
9D00FB04  8C420000   LW V0, 0(V0)
9D00FB08  AC820000   SW V0, 0(A0)
9D00FB0C  10000014   BEQ ZERO, ZERO, __pop_ptr_needed
9D00FB10  AC460000   SW A2, 0(V0)
9D00FB14  50A2001A   BEQL A1, V0, __pop_ptr_needed
9D00FB18  8CE20000   LW V0, 0(A3)
9D00FB1C  28A20091   SLTI V0, A1, 145
9D00FB20  10400006   BEQ V0, ZERO, __pop_ptr_needed
9D00FB24  240200A0   ADDIU V0, ZERO, 160
9D00FB28  24020088   ADDIU V0, ZERO, 136
9D00FB2C  50A2000E   BEQL A1, V0, __pop_ptr_needed
9D00FB30  8CE20000   LW V0, 0(A3)
9D00FB34  03E00008   JR RA
9D00FB38  00001025   OR V0, ZERO, ZERO
9D00FB3C  50A2FFEF   BEQL A1, V0, __pop_ptr_needed
9D00FB40  8CE20000   LW V0, 0(A3)
9D00FB44  1000FFEA   BEQ ZERO, ZERO, __pop_ptr_needed
9D00FB48  240200C0   ADDIU V0, ZERO, 192
9D00FB4C  24430004   ADDIU V1, V0, 4
9D00FB50  ACE30000   SW V1, 0(A3)
9D00FB54  8C420000   LW V0, 0(V0)
9D00FB58  AC820000   SW V0, 0(A0)
9D00FB5C  A4460000   SH A2, 0(V0)
9D00FB60  03E00008   JR RA
9D00FB64  24020001   ADDIU V0, ZERO, 1
9D00FB68  24430004   ADDIU V1, V0, 4
9D00FB6C  ACE30000   SW V1, 0(A3)
9D00FB70  8C420000   LW V0, 0(V0)
9D00FB74  AC820000   SW V0, 0(A0)
9D00FB78  1000FFF9   BEQ ZERO, ZERO, __pop_ptr_needed
9D00FB7C  A0460000   SB A2, 0(V0)
9D00FB80  24430004   ADDIU V1, V0, 4
9D00FB84  ACE30000   SW V1, 0(A3)
9D00FB88  8C420000   LW V0, 0(V0)
9D00FB8C  AC820000   SW V0, 0(A0)
9D00FB90  AC460000   SW A2, 0(V0)
9D00FB94  000637C3   SRA A2, A2, 31
9D00FB98  1000FFF1   BEQ ZERO, ZERO, __pop_ptr_needed
9D00FB9C  AC460004   SW A2, 4(V0)
---  /data01/build/bamboo/xml-data/build-dir/M32DEV-GMB34-JOB1/src/xc32-musl-stdlib/musl/musl-1.1.18/src/stdio/mchp/__pop_int.c
-----*  Optimizer-Generated Procedural Abstractions  *----------------------------------------------
9D00CB98  24020088   ADDIU V0, ZERO, 136
9D00CB9C  10A2003F   BEQ A1, V0, __pop_int_needed
9D00CBA0  28A20089   SLTI V0, A1, 137
9D00CBA4  1040001B   BEQ V0, ZERO, __pop_int_needed
9D00CBA8  240200A0   ADDIU V0, ZERO, 160
9D00CBAC  24020081   ADDIU V0, ZERO, 129
9D00CBB0  10A20053   BEQ A1, V0, __pop_int_needed
9D00CBB4  28A20082   SLTI V0, A1, 130
9D00CBB8  10400006   BEQ V0, ZERO, __pop_int_needed
9D00CBBC  24020082   ADDIU V0, ZERO, 130
9D00CBC0  24020080   ADDIU V0, ZERO, 128
9D00CBC4  50A2004F   BEQL A1, V0, __pop_int_needed
9D00CBC8  8CE20000   LW V0, 0(A3)
9D00CBCC  03E00008   JR RA
9D00CBD0  00001025   OR V0, ZERO, ZERO
9D00CBD4  50A2003A   BEQL A1, V0, __pop_int_needed
9D00CBD8  8CE20000   LW V0, 0(A3)
9D00CBDC  24020084   ADDIU V0, ZERO, 132
9D00CBE0  14A2FFFA   BNE A1, V0, __pop_int_needed
9D00CBE4  00000000   NOP
9D00CBE8  8CE20000   LW V0, 0(A3)
9D00CBEC  24430004   ADDIU V1, V0, 4
9D00CBF0  8C420000   LW V0, 0(V0)
9D00CBF4  10C00026   BEQ A2, ZERO, __pop_int_needed
9D00CBF8  ACE30000   SW V1, 0(A3)
9D00CBFC  7C021620   SEH V0, V0
9D00CC00  AC820000   SW V0, 0(A0)
9D00CC04  000217C3   SRA V0, V0, 31
9D00CC08  AC820004   SW V0, 4(A0)
9D00CC0C  03E00008   JR RA
9D00CC10  24020001   ADDIU V0, ZERO, 1
9D00CC14  50A20036   BEQL A1, V0, __pop_int_needed
9D00CC18  8CE20000   LW V0, 0(A3)
9D00CC1C  28A200A1   SLTI V0, A1, 161
9D00CC20  10400011   BEQ V0, ZERO, __pop_int_needed
9D00CC24  240200C0   ADDIU V0, ZERO, 192
9D00CC28  24020090   ADDIU V0, ZERO, 144
9D00CC2C  14A2FFE7   BNE A1, V0, __pop_int_needed
9D00CC30  00000000   NOP
9D00CC34  8CE20000   LW V0, 0(A3)
9D00CC38  24420007   ADDIU V0, V0, 7
9D00CC3C  7C021004   INS V0, ZERO, 0, 3
9D00CC40  8C480000   LW T0, 0(V0)
9D00CC44  8C490004   LW T1, 4(V0)
9D00CC48  24420008   ADDIU V0, V0, 8
9D00CC4C  ACE20000   SW V0, 0(A3)
9D00CC50  AC880000   SW T0, 0(A0)
9D00CC54  AC890004   SW T1, 4(A0)
9D00CC58  10C00001   BEQ A2, ZERO, __pop_int_needed
9D00CC5C  24020001   ADDIU V0, ZERO, 1
9D00CC60  03E00008   JR RA
9D00CC64  00000000   NOP
9D00CC68  50A20005   BEQL A1, V0, __pop_int_needed
9D00CC6C  8CE20000   LW V0, 0(A3)
9D00CC70  240200F0   ADDIU V0, ZERO, 240
9D00CC74  14A2FFD5   BNE A1, V0, __pop_int_needed
9D00CC78  00000000   NOP
9D00CC7C  8CE20000   LW V0, 0(A3)
9D00CC80  24430004   ADDIU V1, V0, 4
9D00CC84  ACE30000   SW V1, 0(A3)
9D00CC88  10000002   BEQ ZERO, ZERO, __pop_int_needed
9D00CC8C  8C420000   LW V0, 0(V0)
9D00CC90  3042FFFF   ANDI V0, V0, -1
9D00CC94  10000020   BEQ ZERO, ZERO, __pop_int_needed
9D00CC98  AC820000   SW V0, 0(A0)
9D00CC9C  8CE20000   LW V0, 0(A3)
9D00CCA0  24430004   ADDIU V1, V0, 4
9D00CCA4  8C420000   LW V0, 0(V0)
9D00CCA8  10C00003   BEQ A2, ZERO, __pop_int_needed
9D00CCAC  ACE30000   SW V1, 0(A3)
9D00CCB0  1000FFD3   BEQ ZERO, ZERO, __pop_int_needed
9D00CCB4  7C021420   SEB V0, V0
9D00CCB8  1000FFF6   BEQ ZERO, ZERO, __pop_int_needed
9D00CCBC  304200FF   ANDI V0, V0, 255
9D00CCC0  24420007   ADDIU V0, V0, 7
9D00CCC4  7C021004   INS V0, ZERO, 0, 3
9D00CCC8  8C480000   LW T0, 0(V0)
9D00CCCC  8C490004   LW T1, 4(V0)
9D00CCD0  24420008   ADDIU V0, V0, 8
9D00CCD4  ACE20000   SW V0, 0(A3)
9D00CCD8  AC880000   SW T0, 0(A0)
9D00CCDC  AC890004   SW T1, 4(A0)
9D00CCE0  10C0FFDF   BEQ A2, ZERO, __pop_int_needed
9D00CCE4  24020001   ADDIU V0, ZERO, 1
9D00CCE8  03E00008   JR RA
9D00CCEC  00000000   NOP
9D00CCF0  24430004   ADDIU V1, V0, 4
9D00CCF4  ACE30000   SW V1, 0(A3)
9D00CCF8  1000FFC1   BEQ ZERO, ZERO, __pop_int_needed
9D00CCFC  8C420000   LW V0, 0(V0)
9D00CD00  8CE20000   LW V0, 0(A3)
9D00CD04  24430004   ADDIU V1, V0, 4
9D00CD08  ACE30000   SW V1, 0(A3)
9D00CD0C  8C420000   LW V0, 0(V0)
9D00CD10  14C0FFBC   BNE A2, ZERO, __pop_int_needed
9D00CD14  AC820000   SW V0, 0(A0)
9D00CD18  1000FFBC   BEQ ZERO, ZERO, __pop_int_needed
9D00CD1C  AC800004   SW ZERO, 4(A0)
---  /data01/build/bamboo/xml-data/build-dir/M32DEV-GMB34-JOB1/src/xc32-musl-stdlib/musl/musl-1.1.18/src/stdio/mchp/__pop_float.c
-----*  Optimizer-Generated Procedural Abstractions  *----------------------------------------------
9D012A88  28A30080   SLTI V1, A1, 128
9D012A8C  1460000E   BNE V1, ZERO, __pop_float_needed
9D012A90  00001025   OR V0, ZERO, ZERO
9D012A94  28A20082   SLTI V0, A1, 130
9D012A98  14400003   BNE V0, ZERO, __pop_float_needed
9D012A9C  24030083   ADDIU V1, ZERO, 131
9D012AA0  14A30009   BNE A1, V1, __pop_float_needed
9D012AA4  00001025   OR V0, ZERO, ZERO
9D012AA8  8CC20000   LW V0, 0(A2)
9D012AAC  24420007   ADDIU V0, V0, 7
9D012AB0  7C021004   INS V0, ZERO, 0, 3
9D012AB4  24430008   ADDIU V1, V0, 8
9D012AB8  ACC30000   SW V1, 0(A2)
9D012ABC  D4400000   LDC1 F0, 0(V0)
9D012AC0  24020001   ADDIU V0, ZERO, 1
9D012AC4  F4800000   SDC1 F0, 0(A0)
9D012AC8  03E00008   JR RA
9D012ACC  00000000   NOP
---  /data01/build/bamboo/xml-data/build-dir/M32DEV-GMB34-JOB1/src/xc32-musl-stdlib/musl/musl-1.1.18/src/stdio/mchp/__io_fmt_needed.c
-----*  Optimizer-Generated Procedural Abstractions  *----------------------------------------------
00000000  00000000   NOP
00000004  00000000   NOP
00000008  00000000   NOP
0000000C  00000000   NOP
00000018  00000000   NOP
00000028  00000000   NOP
00000038  00000000   NOP
00000048  00000000   NOP
00000058  00000000   NOP
00000068  00000000   NOP
00000078  00000000   NOP
---  /data01/build/bamboo/xml-data/build-dir/M32DEV-GMB34-JOB1/src/xc32-musl-stdlib/musl/musl-1.1.18/src/stdio/mchp/__fmt_x.c
-----*  Optimizer-Generated Procedural Abstractions  *----------------------------------------------
9D008EC0  27BDFFA8   ADDIU SP, SP, -88
9D008EC8  8CB10004   LW S1, 4(A1)
9D008ECC  AFBE0050   SW FP, 80(SP)
9D008ED0  AFB7004C   SW S7, 76(SP)
9D008ED4  AFB50044   SW S5, 68(SP)
9D008ED8  AFB3003C   SW S3, 60(SP)
9D008EDC  00E04825   OR T1, A3, ZERO
9D008EE0  AFBF0054   SW RA, 84(SP)
9D008EE4  AFB60048   SW S6, 72(SP)
9D008EE8  AFB40040   SW S4, 64(SP)
9D008EEC  AFB20038   SW S2, 56(SP)
9D008EF0  AFB00030   SW S0, 48(SP)
9D008EF4  00809825   OR S3, A0, ZERO
9D008EF8  00A0A825   OR S5, A1, ZERO
9D008EFC  8CA70008   LW A3, 8(A1)
9D008F00  8CBE0000   LW FP, 0(A1)
9D008F04  0620004C   BLTZ S1, __fmt_x_needed
9D008F08  8CB7000C   LW S7, 12(A1)
9D008F0C  7C1E0844   INS FP, ZERO, 1, 1
9D008F10  33CA0010   ANDI T2, FP, 16
9D008F14  8CD60000   LW S6, 0(A2)
9D008F18  8CC80004   LW T0, 4(A2)
9D008F1C  11400004   BEQ T2, ZERO, __fmt_x_needed
9D008F20  00E01025   OR V0, A3, ZERO
9D008F24  02C81825   OR V1, S6, T0
9D008F28  54600001   BNEL V1, ZERO, __fmt_x_needed
9D008F2C  24E2FFFE   ADDIU V0, A3, -2
9D008F30  33CB0008   ANDI T3, FP, 8
9D008F34  55600001   BNEL T3, ZERO, __fmt_x_needed
9D008F38  2442FFFF   ADDIU V0, V0, -1
9D008F3C  8EB00010   LW S0, 16(S5)
9D008F40  2534FFBF   ADDIU S4, T1, -65
9D008F44  00519023   SUBU S2, V0, S1
9D008F48  2610FFFF   ADDIU S0, S0, -1
9D008F4C  02F01821   ADDU V1, S7, S0
9D008F50  A0600000   SB ZERO, 0(V1)
9D008F54  33C50002   ANDI A1, FP, 2
9D008F58  2E94001A   SLTIU S4, S4, 26
9D008F5C  2A020002   SLTI V0, S0, 2
9D008F60  1440000A   BNE V0, ZERO, __fmt_x_needed
9D008F64  02C81025   OR V0, S6, T0
9D008F68  14400035   BNE V0, ZERO, __fmt_x_needed
9D008F6C  32C3000F   ANDI V1, S6, 15
9D008F70  1E200034   BGTZ S1, __fmt_x_needed
9D008F74  2864000A   SLTI A0, V1, 10
9D008F78  02511021   ADDU V0, S2, S1
9D008F7C  18400003   BLEZ V0, __fmt_x_needed
9D008F80  00000000   NOP
9D008F84  54A00030   BNEL A1, ZERO, __fmt_x_needed
9D008F88  2610FFFF   ADDIU S0, S0, -1
9D008F8C  1140000B   BEQ T2, ZERO, __fmt_x_needed
9D008F90  00000000   NOP
9D008F94  8CC20000   LW V0, 0(A2)
9D008F98  8CC30004   LW V1, 4(A2)
9D008F9C  00431025   OR V0, V0, V1
9D008FA0  10400006   BEQ V0, ZERO, __fmt_x_needed
9D008FA4  02F01021   ADDU V0, S7, S0
9D008FA8  2610FFFE   ADDIU S0, S0, -2
9D008FAC  A049FFFF   SB T1, -1(V0)
9D008FB0  24030030   ADDIU V1, ZERO, 48
9D008FB4  02F01021   ADDU V0, S7, S0
9D008FB8  A0430000   SB V1, 0(V0)
9D008FBC  51600006   BEQL T3, ZERO, __fmt_x_needed
9D008FC0  8EA60010   LW A2, 16(S5)
9D008FC4  2610FFFF   ADDIU S0, S0, -1
9D008FC8  02F01021   ADDU V0, S7, S0
9D008FCC  24030020   ADDIU V1, ZERO, 32
9D008FD0  A0430000   SB V1, 0(V0)
9D008FD4  8EA60010   LW A2, 16(S5)
9D008FD8  AFBE0010   SW FP, 16(SP)
9D008FDC  02F02821   ADDU A1, S7, S0
9D008FE0  24C6FFFF   ADDIU A2, A2, -1
9D008FE4  00D03023   SUBU A2, A2, S0
9D008FE8  0F403C85   JAL __pad
9D008FEC  02602025   OR A0, S3, ZERO
9D008FF0  8E630004   LW V1, 4(S3)
9D008FF4  30630100   ANDI V1, V1, 256
9D008FF8  10600004   BEQ V1, ZERO, __fmt_x_needed
9D008FFC  8FBF0054   LW RA, 84(SP)
9D009000  8EA30004   LW V1, 4(S5)
9D009004  0043202A   SLT A0, V0, V1
9D009008  0064100B   MOVN V0, V1, A0
9D00900C  8FBE0050   LW FP, 80(SP)
9D009010  8FB7004C   LW S7, 76(SP)
9D009014  8FB60048   LW S6, 72(SP)
9D009018  8FB50044   LW S5, 68(SP)
9D00901C  8FB40040   LW S4, 64(SP)
9D009020  8FB3003C   LW S3, 60(SP)
9D009024  8FB20038   LW S2, 56(SP)
9D009028  8FB10034   LW S1, 52(SP)
9D00902C  8FB00030   LW S0, 48(SP)
9D009030  03E00008   JR RA
9D009034  27BD0058   ADDIU SP, SP, 88
9D009038  1000FFB5   BEQ ZERO, ZERO, __fmt_x_needed
9D00903C  24110001   ADDIU S1, ZERO, 1
9D009040  2864000A   SLTI A0, V1, 10
9D009044  2610FFFF   ADDIU S0, S0, -1
9D009048  10800002   BEQ A0, ZERO, __fmt_x_needed
9D00904C  24620057   ADDIU V0, V1, 87
9D009050  24620030   ADDIU V0, V1, 48
9D009054  12800017   BEQ S4, ZERO, __fmt_x_needed
9D009058  02F01821   ADDU V1, S7, S0
9D00905C  34430020   ORI V1, V0, 32
9D009060  2463FF9F   ADDIU V1, V1, -97
9D009064  2C63001A   SLTIU V1, V1, 26
9D009068  10600012   BEQ V1, ZERO, __fmt_x_needed
9D00906C  02F01821   ADDU V1, S7, S0
9D009070  00402025   OR A0, V0, ZERO
9D009074  AFA50028   SW A1, 40(SP)
9D009078  AFA80024   SW T0, 36(SP)
9D00907C  AFA90064   SW T1, 100(SP)
9D009080  AFA60060   SW A2, 96(SP)
9D009084  AFA70020   SW A3, 32(SP)
9D009088  AFAB001C   SW T3, 28(SP)
9D00908C  0F404E5B   JAL toupper
9D009090  AFAA0018   SW T2, 24(SP)
9D009094  8FA50028   LW A1, 40(SP)
9D009098  8FA80024   LW T0, 36(SP)
9D00909C  8FA90064   LW T1, 100(SP)
9D0090A0  8FA60060   LW A2, 96(SP)
9D0090A4  8FA70020   LW A3, 32(SP)
9D0090A8  8FAB001C   LW T3, 28(SP)
9D0090AC  8FAA0018   LW T2, 24(SP)
9D0090B0  02F01821   ADDU V1, S7, S0
9D0090B4  A0620000   SB V0, 0(V1)
9D0090B8  0016B102   SRL S6, S6, 4
9D0090BC  00081700   SLL V0, T0, 28
9D0090C0  2631FFFF   ADDIU S1, S1, -1
9D0090C4  0056B025   OR S6, V0, S6
9D0090C8  1000FFA4   BEQ ZERO, ZERO, __fmt_x_needed
9D0090CC  00084102   SRL T0, T0, 4
---  /data01/build/bamboo/xml-data/build-dir/M32DEV-GMB34-JOB1/src/xc32-musl-stdlib/musl/musl-1.1.18/src/stdio/mchp/__fmt_u.c
-----*  Optimizer-Generated Procedural Abstractions  *----------------------------------------------
9D00DEF4  27BDFFC0   ADDIU SP, SP, -64
9D00DEF8  8C820010   LW V0, 16(A0)
9D00DEFC  AFB70034   SW S7, 52(SP)
9D00DF00  8C880004   LW T0, 4(A0)
9D00DF04  8FB70058   LW S7, 88(SP)
9D00DF08  2442FFFF   ADDIU V0, V0, -1
9D00DF0C  AFBE0038   SW FP, 56(SP)
9D00DF10  AFB40028   SW S4, 40(SP)
9D00DF14  AFB30024   SW S3, 36(SP)
9D00DF18  AFB20020   SW S2, 32(SP)
9D00DF1C  AFB1001C   SW S1, 28(SP)
9D00DF20  AFB00018   SW S0, 24(SP)
9D00DF24  AFBF003C   SW RA, 60(SP)
9D00DF28  AFB60030   SW S6, 48(SP)
9D00DF2C  AFB5002C   SW S5, 44(SP)
9D00DF30  00C08025   OR S0, A2, ZERO
9D00DF34  00E08825   OR S1, A3, ZERO
9D00DF38  8FB30054   LW S3, 84(SP)
9D00DF3C  8C94000C   LW S4, 12(A0)
9D00DF40  8EFE0000   LW FP, 0(S7)
9D00DF44  05010002   BGEZ T0, 0x9D00DF50
9D00DF48  00409025   OR S2, V0, ZERO
9D00DF4C  24080001   ADDIU T0, ZERO, 1
9D00DF50  02821021   ADDU V0, S4, V0
9D00DF54  A0400000   SB ZERO, 0(V0)
9D00DF58  0000A825   OR S5, ZERO, ZERO
9D00DF5C  24090001   ADDIU T1, ZERO, 1
9D00DF60  33DE0002   ANDI FP, FP, 2
9D00DF64  0013B7C3   SRA S6, S3, 31
9D00DF68  1E400010   BGTZ S2, 0x9D00DFAC
9D00DF6C  02111025   OR V0, S0, S1
9D00DF70  5120002E   BEQL T1, ZERO, 0x9D00E02C
9D00DF74  8EE20000   LW V0, 0(S7)
9D00DF78  8FBF003C   LW RA, 60(SP)
9D00DF7C  02401025   OR V0, S2, ZERO
9D00DF80  8FBE0038   LW FP, 56(SP)
9D00DF84  8FB70034   LW S7, 52(SP)
9D00DF88  8FB60030   LW S6, 48(SP)
9D00DF8C  8FB5002C   LW S5, 44(SP)
9D00DF90  8FB40028   LW S4, 40(SP)
9D00DF94  8FB30024   LW S3, 36(SP)
9D00DF98  8FB20020   LW S2, 32(SP)
9D00DF9C  8FB1001C   LW S1, 28(SP)
9D00DFA0  8FB00018   LW S0, 24(SP)
9D00DFA4  03E00008   JR RA
9D00DFA8  27BD0040   ADDIU SP, SP, 64
9D00DFAC  1440000A   BNE V0, ZERO, 0x9D00DFD8
9D00DFB0  02002025   OR A0, S0, ZERO
9D00DFB4  01151023   SUBU V0, T0, S5
9D00DFB8  1C400008   BGTZ V0, 0x9D00DFDC
9D00DFBC  02202825   OR A1, S1, ZERO
9D00DFC0  8FA20050   LW V0, 80(SP)
9D00DFC4  00551023   SUBU V0, V0, S5
9D00DFC8  1840FFE9   BLEZ V0, 0x9D00DF70
9D00DFCC  00000000   NOP
9D00DFD0  13C0FFE7   BEQ FP, ZERO, 0x9D00DF70
9D00DFD4  00000000   NOP
9D00DFD8  02202825   OR A1, S1, ZERO
9D00DFDC  02603025   OR A2, S3, ZERO
9D00DFE0  02C03825   OR A3, S6, ZERO
9D00DFE4  AFA80014   SW T0, 20(SP)
9D00DFE8  0F401A05   JAL __umoddi3
9D00DFEC  2652FFFF   ADDIU S2, S2, -1
9D00DFF0  AFA20010   SW V0, 16(SP)
9D00DFF4  02921821   ADDU V1, S4, S2
9D00DFF8  24420030   ADDIU V0, V0, 48
9D00DFFC  02002025   OR A0, S0, ZERO
9D00E000  02202825   OR A1, S1, ZERO
9D00E004  A0620000   SB V0, 0(V1)
9D00E008  02603025   OR A2, S3, ZERO
9D00E00C  0F401B03   JAL __udivdi3
9D00E010  02C03825   OR A3, S6, ZERO
9D00E014  00408025   OR S0, V0, ZERO
9D00E018  00608825   OR S1, V1, ZERO
9D00E01C  26B50001   ADDIU S5, S5, 1
9D00E020  8FA80014   LW T0, 20(SP)
9D00E024  1000FFD0   BEQ ZERO, ZERO, 0x9D00DF68
9D00E028  8FA90010   LW T1, 16(SP)
9D00E02C  7C022104   INS V0, ZERO, 4, 1
9D00E030  1000FFD1   BEQ ZERO, ZERO, 0x9D00DF78
9D00E034  AEE20000   SW V0, 0(S7)
9D01061C  8CA20000   LW V0, 0(A1)
9D010620  8CA30004   LW V1, 4(A1)
9D010624  27BDFFC0   ADDIU SP, SP, -64
9D010628  AFB30038   SW S3, 56(SP)
9D01062C  AFB20034   SW S2, 52(SP)
9D010630  AFB10030   SW S1, 48(SP)
9D010634  AFB0002C   SW S0, 44(SP)
9D010638  AFBF003C   SW RA, 60(SP)
9D01063C  00808825   OR S1, A0, ZERO
9D010640  00A08025   OR S0, A1, ZERO
9D010644  8CB20008   LW S2, 8(A1)
9D010648  AFA20020   SW V0, 32(SP)
9D01064C  04600003   BLTZ V1, __fmt_u_needed
9D010650  8CB3000C   LW S3, 12(A1)
9D010654  7C020844   INS V0, ZERO, 1, 1
9D010658  AFA20020   SW V0, 32(SP)
9D01065C  27A20020   ADDIU V0, SP, 32
9D010660  AFA20018   SW V0, 24(SP)
9D010664  2402000A   ADDIU V0, ZERO, 10
9D010668  AFA20014   SW V0, 20(SP)
9D01066C  AFB20010   SW S2, 16(SP)
9D010670  8CC70004   LW A3, 4(A2)
9D010674  8CC60000   LW A2, 0(A2)
9D010678  0F4037BD   JAL __cvt_u
9D01067C  02002025   OR A0, S0, ZERO
9D010680  8E060010   LW A2, 16(S0)
9D010684  8FA30020   LW V1, 32(SP)
9D010688  02403825   OR A3, S2, ZERO
9D01068C  24C6FFFF   ADDIU A2, A2, -1
9D010690  AFA30010   SW V1, 16(SP)
9D010694  00C23023   SUBU A2, A2, V0
9D010698  02622821   ADDU A1, S3, V0
9D01069C  0F403C85   JAL __pad
9D0106A0  02202025   OR A0, S1, ZERO
9D0106A4  8E230004   LW V1, 4(S1)
9D0106A8  30630100   ANDI V1, V1, 256
9D0106AC  10600004   BEQ V1, ZERO, __fmt_u_needed
9D0106B0  8FBF003C   LW RA, 60(SP)
9D0106B4  8E030004   LW V1, 4(S0)
9D0106B8  0043202A   SLT A0, V0, V1
9D0106BC  0064100B   MOVN V0, V1, A0
9D0106C0  8FB30038   LW S3, 56(SP)
9D0106C4  8FB20034   LW S2, 52(SP)
9D0106C8  8FB10030   LW S1, 48(SP)
9D0106CC  8FB0002C   LW S0, 44(SP)
9D0106D0  03E00008   JR RA
9D0106D4  27BD0040   ADDIU SP, SP, 64
---  /data01/build/bamboo/xml-data/build-dir/M32DEV-GMB34-JOB1/src/xc32-musl-stdlib/musl/musl-1.1.18/src/stdio/mchp/__fmt_s.c
-----*  Optimizer-Generated Procedural Abstractions  *----------------------------------------------
9D010FC8  3C036C75   LUI V1, 27765
9D010FCC  27BDFFC8   ADDIU SP, SP, -56
9D010FD0  24636E28   ADDIU V1, V1, 28200
9D010FD4  AFA30018   SW V1, 24(SP)
9D010FD8  2403296C   ADDIU V1, ZERO, 10604
9D010FDC  AFB40030   SW S4, 48(SP)
9D010FE0  AFB3002C   SW S3, 44(SP)
9D010FE4  AFB20028   SW S2, 40(SP)
9D010FE8  AFB10024   SW S1, 36(SP)
9D010FEC  AFB00020   SW S0, 32(SP)
9D010FF0  AFBF0034   SW RA, 52(SP)
9D010FF4  00809025   OR S2, A0, ZERO
9D010FF8  00E01025   OR V0, A3, ZERO
9D010FFC  A7A3001C   SH V1, 28(SP)
9D011000  A3A0001E   SB ZERO, 30(SP)
9D011004  8CB10004   LW S1, 4(A1)
9D011008  8CB30008   LW S3, 8(A1)
9D01100C  8CB40000   LW S4, 0(A1)
9D011010  10C00002   BEQ A2, ZERO, __fmt_0_needed, __fmt_s_needed
9D011014  27B00018   ADDIU S0, SP, 24
9D011018  00C08025   OR S0, A2, ZERO
9D01101C  14400003   BNE V0, ZERO, __fmt_0_needed, __fmt_s_needed
9D011020  00000000   NOP
9D011024  0F4034B6   JAL strlen
9D011028  02002025   OR A0, S0, ZERO
9D01102C  06200002   BLTZ S1, __fmt_0_needed, __fmt_s_needed
9D011030  0222182B   SLTU V1, S1, V0
9D011034  0223100B   MOVN V0, S1, V1
9D011038  AFB40010   SW S4, 16(SP)
9D01103C  02603825   OR A3, S3, ZERO
9D011040  02002825   OR A1, S0, ZERO
9D011044  02402025   OR A0, S2, ZERO
9D011048  0F403C85   JAL __pad
9D01104C  00403025   OR A2, V0, ZERO
9D011050  8FBF0034   LW RA, 52(SP)
9D011054  8FB40030   LW S4, 48(SP)
9D011058  8FB3002C   LW S3, 44(SP)
9D01105C  8FB20028   LW S2, 40(SP)
9D011060  8FB10024   LW S1, 36(SP)
9D011064  8FB00020   LW S0, 32(SP)
9D011068  03E00008   JR RA
9D01106C  27BD0038   ADDIU SP, SP, 56
---  /data01/build/bamboo/xml-data/build-dir/M32DEV-GMB34-JOB1/src/xc32-musl-stdlib/musl/musl-1.1.18/src/stdio/mchp/__fmt_o.c
-----*  Optimizer-Generated Procedural Abstractions  *----------------------------------------------
9D00F714  8CA20000   LW V0, 0(A1)
9D00F718  8CA30004   LW V1, 4(A1)
9D00F71C  27BDFFC0   ADDIU SP, SP, -64
9D00F720  AFB30038   SW S3, 56(SP)
9D00F724  AFB20034   SW S2, 52(SP)
9D00F728  AFB10030   SW S1, 48(SP)
9D00F72C  AFB0002C   SW S0, 44(SP)
9D00F730  AFBF003C   SW RA, 60(SP)
9D00F734  00809025   OR S2, A0, ZERO
9D00F738  00A08025   OR S0, A1, ZERO
9D00F73C  8CB30008   LW S3, 8(A1)
9D00F740  AFA20020   SW V0, 32(SP)
9D00F744  04600003   BLTZ V1, __fmt_o_needed
9D00F748  8CB1000C   LW S1, 12(A1)
9D00F74C  7C020844   INS V0, ZERO, 1, 1
9D00F750  AFA20020   SW V0, 32(SP)
9D00F754  27A20020   ADDIU V0, SP, 32
9D00F758  AFA20018   SW V0, 24(SP)
9D00F75C  24020008   ADDIU V0, ZERO, 8
9D00F760  AFA20014   SW V0, 20(SP)
9D00F764  AFB30010   SW S3, 16(SP)
9D00F768  8CC70004   LW A3, 4(A2)
9D00F76C  8CC60000   LW A2, 0(A2)
9D00F770  0F4037BD   JAL __cvt_u
9D00F774  02002025   OR A0, S0, ZERO
9D00F778  8FA30020   LW V1, 32(SP)
9D00F77C  30630010   ANDI V1, V1, 16
9D00F780  10600006   BEQ V1, ZERO, __fmt_o_needed
9D00F784  8FA30020   LW V1, 32(SP)
9D00F788  2442FFFF   ADDIU V0, V0, -1
9D00F78C  02221821   ADDU V1, S1, V0
9D00F790  24040030   ADDIU A0, ZERO, 48
9D00F794  A0640000   SB A0, 0(V1)
9D00F798  8FA30020   LW V1, 32(SP)
9D00F79C  30630008   ANDI V1, V1, 8
9D00F7A0  50600006   BEQL V1, ZERO, __fmt_o_needed
9D00F7A4  8E060010   LW A2, 16(S0)
9D00F7A8  2442FFFF   ADDIU V0, V0, -1
9D00F7AC  02221821   ADDU V1, S1, V0
9D00F7B0  24040020   ADDIU A0, ZERO, 32
9D00F7B4  A0640000   SB A0, 0(V1)
9D00F7B8  8E060010   LW A2, 16(S0)
9D00F7BC  8FA30020   LW V1, 32(SP)
9D00F7C0  02603825   OR A3, S3, ZERO
9D00F7C4  24C6FFFF   ADDIU A2, A2, -1
9D00F7C8  AFA30010   SW V1, 16(SP)
9D00F7CC  00C23023   SUBU A2, A2, V0
9D00F7D0  02222821   ADDU A1, S1, V0
9D00F7D4  0F403C85   JAL __pad
9D00F7D8  02402025   OR A0, S2, ZERO
9D00F7DC  8E430004   LW V1, 4(S2)
9D00F7E0  30630100   ANDI V1, V1, 256
9D00F7E4  10600004   BEQ V1, ZERO, __fmt_o_needed
9D00F7E8  8FBF003C   LW RA, 60(SP)
9D00F7EC  8E030004   LW V1, 4(S0)
9D00F7F0  0043202A   SLT A0, V0, V1
9D00F7F4  0064100B   MOVN V0, V1, A0
9D00F7F8  8FB30038   LW S3, 56(SP)
9D00F7FC  8FB20034   LW S2, 52(SP)
9D00F800  8FB10030   LW S1, 48(SP)
9D00F804  8FB0002C   LW S0, 44(SP)
9D00F808  03E00008   JR RA
9D00F80C  27BD0040   ADDIU SP, SP, 64
---  /data01/build/bamboo/xml-data/build-dir/M32DEV-GMB34-JOB1/src/xc32-musl-stdlib/musl/musl-1.1.18/src/stdio/mchp/__fmt_fp.c
-----*  Optimizer-Generated Procedural Abstractions  *----------------------------------------------
9D003048  27BDFF68   ADDIU SP, SP, -152
9D00304C  AFA700A4   SW A3, 164(SP)
9D003050  D4C00000   LDC1 F0, 0(A2)
9D003054  8CA20008   LW V0, 8(A1)
9D003058  AFB60068   SW S6, 104(SP)
9D00305C  F7A00018   SDC1 F0, 24(SP)
9D003060  44800000   MTC1 ZERO, F0
9D003064  D7A10018   LDC1 F1, 24(SP)
9D003068  44E00000   MTHC1 ZERO, F0
9D00306C  AFA20020   SW V0, 32(SP)
9D003070  4620083C   C.LT.D F1, F0
9D003074  8CA20010   LW V0, 16(A1)
9D003078  AFB50064   SW S5, 100(SP)
9D00307C  AFB00050   SW S0, 80(SP)
9D003080  AFBF0074   SW RA, 116(SP)
9D003084  AFBE0070   SW FP, 112(SP)
9D003088  AFB7006C   SW S7, 108(SP)
9D00308C  AFB40060   SW S4, 96(SP)
9D003090  AFB3005C   SW S3, 92(SP)
9D003094  AFB20058   SW S2, 88(SP)
9D003098  AFB10054   SW S1, 84(SP)
9D00309C  F7B80088   SDC1 F24, 136(SP)
9D0030A0  F7B60080   SDC1 F22, 128(SP)
9D0030A4  F7B40078   SDC1 F20, 120(SP)
9D0030A8  AFA40098   SW A0, 152(SP)
9D0030AC  8CB60000   LW S6, 0(A1)
9D0030B0  8CB50004   LW S5, 4(A1)
9D0030B4  AFA20034   SW V0, 52(SP)
9D0030B8  4501000C   BC1T __fmt_f_needed
9D0030BC  8CB0000C   LW S0, 12(A1)
9D0030C0  32C20004   ANDI V0, S6, 4
9D0030C4  14400012   BNE V0, ZERO, __fmt_f_needed
9D0030C8  2402002B   ADDIU V0, ZERO, 43
9D0030CC  32C20008   ANDI V0, S6, 8
9D0030D0  AFA20024   SW V0, 36(SP)
9D0030D4  10400013   BEQ V0, ZERO, __fmt_fp::__DOUBLE_BITS
9D0030D8  8FB30020   LW S3, 32(SP)
9D0030DC  24020020   ADDIU V0, ZERO, 32
9D0030E0  A2020000   SB V0, 0(S0)
9D0030E4  1000000D   BEQ ZERO, ZERO, __fmt_f_needed
9D0030E8  2673FFFF   ADDIU S3, S3, -1
9D0030EC  8FA20018   LW V0, 24(SP)
9D0030F0  8FA3001C   LW V1, 28(SP)
9D0030F4  AFA20028   SW V0, 40(SP)
9D0030F8  3C028000   LUI V0, -32768
9D0030FC  00431026   XOR V0, V0, V1
9D003100  AFA2002C   SW V0, 44(SP)
9D003104  D7A10028   LDC1 F1, 40(SP)
9D003108  2402002D   ADDIU V0, ZERO, 45
9D00310C  F7A10018   SDC1 F1, 24(SP)
9D003110  A2020000   SB V0, 0(S0)
9D003114  8FA20020   LW V0, 32(SP)
9D003118  2453FFFF   ADDIU S3, V0, -1
9D00311C  24020001   ADDIU V0, ZERO, 1
9D003120  AFA20024   SW V0, 36(SP)
9D003124  8FA30024   LW V1, 36(SP)
9D003128  8FA2001C   LW V0, 28(SP)
9D00312C  8FA40018   LW A0, 24(SP)
9D003130  02031821   ADDU V1, S0, V1
9D003134  7C42F000   EXT V0, V0, 0, 31
9D003138  14800026   BNE A0, ZERO, __fmt_fp::__DOUBLE_BITS
9D00313C  AFA30030   SW V1, 48(SP)
9D003140  3C037FF0   LUI V1, 32752
9D003144  14430024   BNE V0, V1, __fmt_f_needed
9D003148  3C087FF0   LUI T0, 32752
9D00314C  8FA200A4   LW V0, 164(SP)
9D003150  3C119D01   LUI S1, -25343
9D003154  2442FFBF   ADDIU V0, V0, -65
9D003158  2C42001A   SLTIU V0, V0, 26
9D00315C  10400003   BEQ V0, ZERO, __fmt_f_needed
9D003160  26253CEC   ADDIU A1, S1, 15596
9D003164  3C059D01   LUI A1, -25343
9D003168  24A53CE8   ADDIU A1, A1, 15592
9D00316C  0F404D83   JAL strcpy
9D003170  8FA40030   LW A0, 48(SP)
9D003174  26243CEC   ADDIU A0, S1, 15596
9D003178  0F4034B6   JAL strlen
9D00317C  00000000   NOP
9D003180  8FA70020   LW A3, 32(SP)
9D003184  8FA40098   LW A0, 152(SP)
9D003188  AFB60010   SW S6, 16(SP)
9D00318C  02002825   OR A1, S0, ZERO
9D003190  0F403C85   JAL __pad
9D003194  00403025   OR A2, V0, ZERO
9D003198  8FBF0074   LW RA, 116(SP)
9D00319C  8FBE0070   LW FP, 112(SP)
9D0031A0  8FB7006C   LW S7, 108(SP)
9D0031A4  8FB60068   LW S6, 104(SP)
9D0031A8  8FB50064   LW S5, 100(SP)
9D0031AC  8FB40060   LW S4, 96(SP)
9D0031B0  8FB3005C   LW S3, 92(SP)
9D0031B4  8FB20058   LW S2, 88(SP)
9D0031B8  8FB10054   LW S1, 84(SP)
9D0031BC  8FB00050   LW S0, 80(SP)
9D0031C0  D7B80088   LDC1 F24, 136(SP)
9D0031C4  D7B60080   LDC1 F22, 128(SP)
9D0031C8  D7B40078   LDC1 F20, 120(SP)
9D0031CC  03E00008   JR RA
9D0031D0  27BD0098   ADDIU SP, SP, 152
9D0031D4  3C087FF0   LUI T0, 32752
9D0031F8  8FA200A4   LW V0, 164(SP)
9D0031FC  3C119D01   LUI S1, -25343
9D003200  2442FFBF   ADDIU V0, V0, -65
9D003204  2C42001A   SLTIU V0, V0, 26
9D003208  10400003   BEQ V0, ZERO, __fmt_f_needed
9D00320C  26253CF4   ADDIU A1, S1, 15604
9D003210  3C059D01   LUI A1, -25343
9D003214  24A53CF0   ADDIU A1, A1, 15600
9D003218  0F404D83   JAL strcpy
9D00321C  8FA40030   LW A0, 48(SP)
9D003220  1000FFD5   BEQ ZERO, ZERO, __fmt_f_needed
9D003224  26243CF4   ADDIU A0, S1, 15604
9D003228  3C119D01   LUI S1, -25343
9D00322C  3C0B9D01   LUI T3, -25343
9D003230  46200932   C.EQ.D 1, F1, F0
9D003234  D6343808   LDC1 F20, 14344(S1)
9D003238  45040021   BC1F 1, __fmt_f_needed
9D00323C  0000B825   OR S7, ZERO, ZERO
9D003240  8FA400A4   LW A0, 164(SP)
9D003244  AFAB0028   SW T3, 40(SP)
9D003248  0F404E54   JAL tolower
9D00324C  AFA5009C   SW A1, 156(SP)
9D003250  7C023C20   SEB A3, V0
9D003254  8FA5009C   LW A1, 156(SP)
9D003258  8FAB0028   LW T3, 40(SP)
9D00325C  06A00123   BLTZ S5, __fmt_f_needed
9D003260  24040067   ADDIU A0, ZERO, 103
9D003264  14E4008C   BNE A3, A0, __fmt_f_needed
9D003268  00E0A025   OR S4, A3, ZERO
9D00326C  52A00001   BEQL S5, ZERO, __fmt_f_needed
9D003270  24150001   ADDIU S5, ZERO, 1
9D003274  2AE4FFFC   SLTI A0, S7, -4
9D003278  14800091   BNE A0, ZERO, __fmt_f_needed
9D00327C  24140065   ADDIU S4, ZERO, 101
9D003280  02F5202A   SLT A0, S7, S5
9D003284  14800081   BNE A0, ZERO, __fmt_f_needed
9D003288  D7A00018   LDC1 F0, 24(SP)
9D00328C  1000008D   BEQ ZERO, ZERO, __fmt_f_needed
9D003290  00000000   NOP
9D003294  26F70001   ADDIU S7, S7, 1
9D003298  4622A002   MUL.D F0, F20, F2
9D00329C  D7A10018   LDC1 F1, 24(SP)
9D0032A0  46200A3C   C.LT.D 2, F1, F0
9D0032A4  450AFFFB   BC1FL 2, __fmt_f_needed
9D0032A8  46200506   MOV.D F20, F0
9D0032AC  3C049D01   LUI A0, -25343
9D0032B0  00001025   OR V0, ZERO, ZERO
9D0032B4  D4803818   LDC1 F0, 14360(A0)
9D0032B8  1000000F   BEQ ZERO, ZERO, __fmt_f_needed
9D0032BC  D5623810   LDC1 F2, 14352(T3)
9D0032C0  1000FFF5   BEQ ZERO, ZERO, __fmt_f_needed
9D0032C4  D5623810   LDC1 F2, 14352(T3)
9D0032C8  50800009   BEQL A0, ZERO, __fmt_f_needed
9D0032CC  4622A503   DIV.D F20, F20, F2
9D0032D0  54400007   BNEL V0, ZERO, __fmt_f_needed
9D0032D4  4622A503   DIV.D F20, F20, F2
9D0032D8  D7A10018   LDC1 F1, 24(SP)
9D0032DC  4620A502   MUL.D F20, F20, F0
9D0032E0  24020001   ADDIU V0, ZERO, 1
9D0032E4  46200842   MUL.D F1, F1, F0
9D0032E8  F7A10018   SDC1 F1, 24(SP)
9D0032EC  4622A503   DIV.D F20, F20, F2
9D0032F0  26F7FFFF   ADDIU S7, S7, -1
9D0032F4  D7A10018   LDC1 F1, 24(SP)
9D0032F8  46340B3C   C.LT.D 3, F1, F20
9D0032FC  450FFFF2   BC1TL 3, __fmt_f_needed
9D003300  2AE4FED4   SLTI A0, S7, -300
9D003304  1000FFCF   BEQ ZERO, ZERO, __fmt_f_needed
9D003308  8FA400A4   LW A0, 164(SP)
9D00330C  1000009D   BEQ ZERO, ZERO, __fmt_f_needed
9D003310  44E07000   MTHC1 ZERO, F14
9D003314  AFA5009C   SW A1, 156(SP)
9D003318  44E30000   MTHC1 V1, F0
9D00331C  AFA7004C   SW A3, 76(SP)
9D003320  46340303   DIV.D F12, F0, F20
9D003324  AFA80048   SW T0, 72(SP)
9D003328  AFA40038   SW A0, 56(SP)
9D00332C  AFA20028   SW V0, 40(SP)
9D003330  0F40426F   JAL floor
9D003334  AFA3002C   SW V1, 44(SP)
9D003338  4620004D   TRUNC.W.D F1, F0
9D00333C  8FA20018   LW V0, 24(SP)
9D003340  440B0800   MFC1 T3, F1
9D003344  8FA3002C   LW V1, 44(SP)
9D003348  004B4825   OR T1, V0, T3
9D00334C  8FA40038   LW A0, 56(SP)
9D003350  8FA20028   LW V0, 40(SP)
9D003354  8FA80048   LW T0, 72(SP)
9D003358  8FA7004C   LW A3, 76(SP)
9D00335C  1520000A   BNE T1, ZERO, __fmt_f_needed
9D003360  8FA5009C   LW A1, 156(SP)
9D003364  24090067   ADDIU T1, ZERO, 103
9D003368  14E90007   BNE A3, T1, __fmt_f_needed
9D00336C  00000000   NOP
9D003370  07C0001C   BLTZ FP, __fmt_f_needed
9D003374  25040001   ADDIU A0, T0, 1
9D003378  02404825   OR T1, S2, ZERO
9D00337C  02126021   ADDU T4, S0, S2
9D003380  1000000E   BEQ ZERO, ZERO, __fmt_f_needed
9D003384  01002025   OR A0, T0, ZERO
9D003388  1620FFFC   BNE S1, ZERO, __fmt_f_needed
9D00338C  02404825   OR T1, S2, ZERO
9D003390  07C1FFFA   BGEZ FP, __fmt_f_needed
9D003394  2406002E   ADDIU A2, ZERO, 46
9D003398  02042021   ADDU A0, S0, A0
9D00339C  26520001   ADDIU S2, S2, 1
9D0033A0  2673FFFF   ADDIU S3, S3, -1
9D0033A4  A0860000   SB A2, 0(A0)
9D0033A8  1000FFF3   BEQ ZERO, ZERO, __fmt_f_needed
9D0033AC  24110001   ADDIU S1, ZERO, 1
9D0033B0  A1860000   SB A2, 0(T4)
9D0033B4  2484FFFF   ADDIU A0, A0, -1
9D0033B8  258C0001   ADDIU T4, T4, 1
9D0033BC  1480FFFC   BNE A0, ZERO, __fmt_f_needed
9D0033C0  24060030   ADDIU A2, ZERO, 48
9D0033C4  26520001   ADDIU S2, S2, 1
9D0033C8  2666FFFF   ADDIU A2, S3, -1
9D0033CC  02094821   ADDU T1, S0, T1
9D0033D0  02489021   ADDU S2, S2, T0
9D0033D4  00C89823   SUBU S3, A2, T0
9D0033D8  256B0030   ADDIU T3, T3, 48
9D0033DC  01284021   ADDU T0, T1, T0
9D0033E0  A10B0000   SB T3, 0(T0)
9D0033E4  3C0B8000   LUI T3, -32768
9D0033E8  AFA40038   SW A0, 56(SP)
9D0033EC  01632026   XOR A0, T3, V1
9D0033F0  AFA20040   SW V0, 64(SP)
9D0033F4  AFA40044   SW A0, 68(SP)
9D0033F8  D7A10040   LDC1 F1, 64(SP)
9D0033FC  4620A386   MOV.D F14, F20
9D003400  46200306   MOV.D F12, F0
9D003404  F7A10010   SDC1 F1, 16(SP)
9D003408  AFA5009C   SW A1, 156(SP)
9D00340C  AFA70048   SW A3, 72(SP)
9D003410  AFA20028   SW V0, 40(SP)
9D003414  0F400F67   JAL fma
9D003418  AFA3002C   SW V1, 44(SP)
9D00341C  8FA40038   LW A0, 56(SP)
9D003420  44080000   MFC1 T0, F0
9D003424  44690000   MFHC1 T1, F0
9D003428  3C0B8000   LUI T3, -32768
9D00342C  01001025   OR V0, T0, ZERO
9D003430  01691826   XOR V1, T3, T1
9D003434  4636A503   DIV.D F20, F20, F22
9D003438  27DEFFFF   ADDIU FP, FP, -1
9D00343C  00804025   OR T0, A0, ZERO
9D003440  8FA5009C   LW A1, 156(SP)
9D003444  1000005E   BEQ ZERO, ZERO, __fmt_f_needed
9D003448  8FA70048   LW A3, 72(SP)
9D00344C  02E9001A   DIV S7, T1
9D003450  012001F4   TEQ T1, ZERO
9D003454  02055821   ADDU T3, S0, A1
9D003458  00A01025   OR V0, A1, ZERO
9D00345C  2673FFFF   ADDIU S3, S3, -1
9D003460  00002810   MFHI A1
9D003464  24A50030   ADDIU A1, A1, 48
9D003468  A1650000   SB A1, 0(T3)
9D00346C  10000074   BEQ ZERO, ZERO, __fmt_f_needed
9D003470  0000B812   MFLO S7
9D003474  80640000   LB A0, 0(V1)
9D003478  02621821   ADDU V1, S3, V0
9D00347C  02031821   ADDU V1, S0, V1
9D003480  A0640000   SB A0, 0(V1)
9D003484  1000008C   BEQ ZERO, ZERO, __fmt_f_needed
9D003488  2442FFFF   ADDIU V0, V0, -1
9D00348C  06E10009   BGEZ S7, __fmt_f_needed
9D003490  24040067   ADDIU A0, ZERO, 103
9D003494  24140066   ADDIU S4, ZERO, 102
9D003498  24040066   ADDIU A0, ZERO, 102
9D00349C  16840008   BNE S4, A0, __fmt_f_needed
9D0034A0  26B50001   ADDIU S5, S5, 1
9D0034A4  06E10003   BGEZ S7, __fmt_f_needed
9D0034A8  24040067   ADDIU A0, ZERO, 103
9D0034AC  D6343808   LDC1 F20, 14344(S1)
9D0034B0  0000B825   OR S7, ZERO, ZERO
9D0034B4  10E40002   BEQ A3, A0, __fmt_f_needed
9D0034B8  24140066   ADDIU S4, ZERO, 102
9D0034BC  02B7A821   ADDU S5, S5, S7
9D0034C0  D7A00018   LDC1 F0, 24(SP)
9D0034C4  D5783810   LDC1 F24, 14352(T3)
9D0034C8  4620A586   MOV.D F22, F20
9D0034CC  F7A00028   SDC1 F0, 40(SP)
9D0034D0  00009025   OR S2, ZERO, ZERO
9D0034D4  3C1E8000   LUI FP, -32768
9D0034D8  D7A00028   LDC1 F0, 40(SP)
9D0034DC  AFAB004C   SW T3, 76(SP)
9D0034E0  AFA5009C   SW A1, 156(SP)
9D0034E4  46360303   DIV.D F12, F0, F22
9D0034E8  AFA70048   SW A3, 72(SP)
9D0034EC  0F40426F   JAL floor
9D0034F0  26520001   ADDIU S2, S2, 1
9D0034F4  8FA20028   LW V0, 40(SP)
9D0034F8  4620004D   TRUNC.W.D F1, F0
9D0034FC  44110800   MFC1 S1, F1
9D003500  AFA20038   SW V0, 56(SP)
9D003504  8FA2002C   LW V0, 44(SP)
9D003508  4620B386   MOV.D F14, F22
9D00350C  46200306   MOV.D F12, F0
9D003510  03C21026   XOR V0, FP, V0
9D003514  AFA2003C   SW V0, 60(SP)
9D003518  D7A10038   LDC1 F1, 56(SP)
9D00351C  4638B583   DIV.D F22, F22, F24
9D003520  0F400F67   JAL fma
9D003524  F7A10010   SDC1 F1, 16(SP)
9D003528  44690000   MFHC1 T1, F0
9D00352C  44080000   MFC1 T0, F0
9D003530  03C91026   XOR V0, FP, T1
9D003534  AFA80028   SW T0, 40(SP)
9D003538  AFA2002C   SW V0, 44(SP)
9D00353C  8FA70048   LW A3, 72(SP)
9D003540  8FA5009C   LW A1, 156(SP)
9D003544  16B2FFE4   BNE S5, S2, __fmt_f_needed
9D003548  8FAB004C   LW T3, 76(SP)
9D00354C  3C049D01   LUI A0, -25343
9D003550  D48E3820   LDC1 F14, 14368(A0)
9D003554  D7A00028   LDC1 F0, 40(SP)
9D003558  462EB382   MUL.D F14, F22, F14
9D00355C  462E043C   C.LT.D 4, F0, F14
9D003560  4513FF6A   BC1TL 4, __fmt_f_needed
9D003564  44807000   MTC1 ZERO, F14
9D003568  462E0532   C.EQ.D 5, F0, F14
9D00356C  45140006   BC1F 5, __fmt_f_needed
9D003570  D7A00018   LDC1 F0, 24(SP)
9D003574  44800000   MTC1 ZERO, F0
9D003578  32310001   ANDI S1, S1, 1
9D00357C  44E00000   MTHC1 ZERO, F0
9D003580  46310392   MOVZ.D F14, F0, S1
9D003584  D7A00018   LDC1 F0, 24(SP)
9D003588  3A9E0065   XORI FP, S4, 101
9D00358C  02E02025   OR A0, S7, ZERO
9D003590  462E0000   ADD.D F0, F0, F14
9D003594  001E200A   MOVZ A0, ZERO, FP
9D003598  8FB20024   LW S2, 36(SP)
9D00359C  D5763810   LDC1 F22, 14352(T3)
9D0035A0  0080F025   OR FP, A0, ZERO
9D0035A4  0095A823   SUBU S5, A0, S5
9D0035A8  44020000   MFC1 V0, F0
9D0035AC  32C40010   ANDI A0, S6, 16
9D0035B0  44630000   MFHC1 V1, F0
9D0035B4  00004025   OR T0, ZERO, ZERO
9D0035B8  00008825   OR S1, ZERO, ZERO
9D0035BC  AFA40018   SW A0, 24(SP)
9D0035C0  12BE0006   BEQ S5, FP, __fmt_f_needed
9D0035C4  02402025   OR A0, S2, ZERO
9D0035C8  8CA90010   LW T1, 16(A1)
9D0035CC  2529FFFB   ADDIU T1, T1, -5
9D0035D0  0249482B   SLTU T1, S2, T1
9D0035D4  5520FF4F   BNEL T1, ZERO, __fmt_f_needed
9D0035D8  44820000   MTC1 V0, F0
9D0035DC  56200009   BNEL S1, ZERO, __fmt_f_needed
9D0035E0  02122021   ADDU A0, S0, S2
9D0035E4  32C20010   ANDI V0, S6, 16
9D0035E8  50400006   BEQL V0, ZERO, __fmt_f_needed
9D0035EC  02122021   ADDU A0, S0, S2
9D0035F0  02042021   ADDU A0, S0, A0
9D0035F4  2402002E   ADDIU V0, ZERO, 46
9D0035F8  26520001   ADDIU S2, S2, 1
9D0035FC  A0820000   SB V0, 0(A0)
9D003600  02122021   ADDU A0, S0, S2
9D003604  24020065   ADDIU V0, ZERO, 101
9D003608  16820023   BNE S4, V0, __fmt_f_needed
9D00360C  A0800000   SB ZERO, 0(A0)
9D003610  8FA20034   LW V0, 52(SP)
9D003614  00003825   OR A3, ZERO, ZERO
9D003618  2442FFFF   ADDIU V0, V0, -1
9D00361C  02022821   ADDU A1, S0, V0
9D003620  06E10003   BGEZ S7, __fmt_f_needed
9D003624  A0A00000   SB ZERO, 0(A1)
9D003628  0017B823   SUBU S7, ZERO, S7
9D00362C  24070001   ADDIU A3, ZERO, 1
9D003630  8FA30034   LW V1, 52(SP)
9D003634  24080003   ADDIU T0, ZERO, 3
9D003638  2409000A   ADDIU T1, ZERO, 10
9D00363C  01034023   SUBU T0, T0, V1
9D003640  16E0FF82   BNE S7, ZERO, __fmt_f_needed
9D003644  2445FFFF   ADDIU A1, V0, -1
9D003648  01025821   ADDU T3, T0, V0
9D00364C  1D60FF7F   BGTZ T3, __fmt_f_needed
9D003650  2403002B   ADDIU V1, ZERO, 43
9D003654  2408002D   ADDIU T0, ZERO, 45
9D003658  0107180B   MOVN V1, T0, A3
9D00365C  02052821   ADDU A1, S0, A1
9D003660  A0A30000   SB V1, 0(A1)
9D003664  8FA300A4   LW V1, 164(SP)
9D003668  2442FFFE   ADDIU V0, V0, -2
9D00366C  24050045   ADDIU A1, ZERO, 69
9D003670  2463FFBF   ADDIU V1, V1, -65
9D003674  2C63001A   SLTIU V1, V1, 26
9D003678  00A3A00B   MOVN S4, A1, V1
9D00367C  0242902A   SLT S2, S2, V0
9D003680  02022821   ADDU A1, S0, V0
9D003684  A0B40000   SB S4, 0(A1)
9D003688  12400003   BEQ S2, ZERO, __fmt_f_needed
9D00368C  2673FFFE   ADDIU S3, S3, -2
9D003690  0F404D83   JAL strcpy
9D003694  00000000   NOP
9D003698  32C20003   ANDI V0, S6, 3
9D00369C  24030002   ADDIU V1, ZERO, 2
9D0036A0  1443FEB5   BNE V0, V1, __fmt_f_needed
9D0036A4  02002025   OR A0, S0, ZERO
9D0036A8  1A60FEB3   BLEZ S3, __fmt_f_needed
9D0036AC  00000000   NOP
9D0036B0  0F4034B6   JAL strlen
9D0036B4  02002025   OR A0, S0, ZERO
9D0036B8  8FA30024   LW V1, 36(SP)
9D0036BC  0043182A   SLT V1, V0, V1
9D0036C0  1060FF6C   BEQ V1, ZERO, __fmt_f_needed
9D0036C4  02021821   ADDU V1, S0, V0
9D0036C8  8FA40030   LW A0, 48(SP)
9D0036CC  02603025   OR A2, S3, ZERO
9D0036D0  0F4043C8   JAL memset
9D0036D4  24050030   ADDIU A1, ZERO, 48
9D0036D8  AFA00020   SW ZERO, 32(SP)
9D0036DC  1000FEA6   BEQ ZERO, ZERO, __fmt_f_needed
9D0036E0  02002025   OR A0, S0, ZERO
9D0036E4  1000FEE3   BEQ ZERO, ZERO, __fmt_f_needed
9D0036E8  24150006   ADDIU S5, ZERO, 6
9D0036EC  10E4FEE1   BEQ A3, A0, __fmt_f_needed
9D0036F0  24150006   ADDIU S5, ZERO, 6
9D0036F4  1000FF68   BEQ ZERO, ZERO, __fmt_f_needed
9D0036F8  00E0A025   OR S4, A3, ZERO
---  /data01/build/bamboo/xml-data/build-dir/M32DEV-GMB34-JOB1/src/xc32-musl-stdlib/musl/musl-1.1.18/src/stdio/mchp/__fmt_d.c
-----*  Optimizer-Generated Procedural Abstractions  *----------------------------------------------
9D00D59C  27BDFFC0   ADDIU SP, SP, -64
9D00D5AC  8C870004   LW A3, 4(A0)
9D00D5B0  8CA20000   LW V0, 0(A1)
9D00D5B4  AFB20030   SW S2, 48(SP)
9D00D5B8  000797C2   SRL S2, A3, 31
9D00D5BC  AFB40038   SW S4, 56(SP)
9D00D5C0  AFB30034   SW S3, 52(SP)
9D00D5C4  AFB00028   SW S0, 40(SP)
9D00D5C8  AFBF003C   SW RA, 60(SP)
9D00D5CC  00A08025   OR S0, A1, ZERO
9D00D5D0  8CA30004   LW V1, 4(A1)
9D00D5D4  8CB30008   LW S3, 8(A1)
9D00D5D8  AFA20020   SW V0, 32(SP)
9D00D5DC  8CB4000C   LW S4, 12(A1)
9D00D5E0  12400040   BEQ S2, ZERO, __fmt_d_needed
9D00D5E4  8CC60000   LW A2, 0(A2)
9D00D5E8  00063023   SUBU A2, ZERO, A2
9D00D5EC  0006202B   SLTU A0, ZERO, A2
9D00D5F0  00073823   SUBU A3, ZERO, A3
9D00D5F4  04600008   BLTZ V1, __fmt_d_needed
9D00D5F8  00E43823   SUBU A3, A3, A0
9D00D5FC  7C020844   INS V0, ZERO, 1, 1
9D00D600  16400005   BNE S2, ZERO, __fmt_d_needed
9D00D604  AFA20020   SW V0, 32(SP)
9D00D608  8FA20020   LW V0, 32(SP)
9D00D60C  30430004   ANDI V1, V0, 4
9D00D610  1060002C   BEQ V1, ZERO, __fmt_d_needed
9D00D614  7C4200C0   EXT V0, V0, 3, 1
9D00D618  2662FFFF   ADDIU V0, S3, -1
9D00D61C  27A30020   ADDIU V1, SP, 32
9D00D620  AFA30018   SW V1, 24(SP)
9D00D624  2403000A   ADDIU V1, ZERO, 10
9D00D628  AFA30014   SW V1, 20(SP)
9D00D62C  AFA20010   SW V0, 16(SP)
9D00D630  0F4037BD   JAL __cvt_u
9D00D634  02002025   OR A0, S0, ZERO
9D00D638  16400006   BNE S2, ZERO, __fmt_d_needed
9D00D63C  2403002D   ADDIU V1, ZERO, 45
9D00D640  8FA30020   LW V1, 32(SP)
9D00D644  30640004   ANDI A0, V1, 4
9D00D648  10800020   BEQ A0, ZERO, __fmt_d_needed
9D00D64C  30630008   ANDI V1, V1, 8
9D00D650  2403002D   ADDIU V1, ZERO, 45
9D00D654  2442FFFF   ADDIU V0, V0, -1
9D00D658  2404002B   ADDIU A0, ZERO, 43
9D00D65C  0072200B   MOVN A0, V1, S2
9D00D660  02821821   ADDU V1, S4, V0
9D00D664  A0640000   SB A0, 0(V1)
9D00D668  8E060010   LW A2, 16(S0)
9D00D66C  8FA30020   LW V1, 32(SP)
9D00D670  02603825   OR A3, S3, ZERO
9D00D674  24C6FFFF   ADDIU A2, A2, -1
9D00D678  AFA30010   SW V1, 16(SP)
9D00D67C  00C23023   SUBU A2, A2, V0
9D00D680  02822821   ADDU A1, S4, V0
9D00D684  0F403C85   JAL __pad
9D00D688  02202025   OR A0, S1, ZERO
9D00D68C  8E230004   LW V1, 4(S1)
9D00D690  30630100   ANDI V1, V1, 256
9D00D694  10600004   BEQ V1, ZERO, __fmt_d_needed
9D00D698  8FBF003C   LW RA, 60(SP)
9D00D69C  8E030004   LW V1, 4(S0)
9D00D6A0  0043202A   SLT A0, V0, V1
9D00D6A4  0064100B   MOVN V0, V1, A0
9D00D6A8  8FB40038   LW S4, 56(SP)
9D00D6AC  8FB30034   LW S3, 52(SP)
9D00D6B0  8FB20030   LW S2, 48(SP)
9D00D6B4  8FB1002C   LW S1, 44(SP)
9D00D6B8  8FB00028   LW S0, 40(SP)
9D00D6BC  03E00008   JR RA
9D00D6C0  27BD0040   ADDIU SP, SP, 64
9D00D6C4  1000FFD5   BEQ ZERO, ZERO, __fmt_d_needed
9D00D6C8  02621023   SUBU V0, S3, V0
9D00D6CC  5060FFE7   BEQL V1, ZERO, __fmt_d_needed
9D00D6D0  8E060010   LW A2, 16(S0)
9D00D6D4  2442FFFF   ADDIU V0, V0, -1
9D00D6D8  02821821   ADDU V1, S4, V0
9D00D6DC  1000FFE1   BEQ ZERO, ZERO, __fmt_d_needed
9D00D6E0  24040020   ADDIU A0, ZERO, 32
9D00D6E4  0463FFC6   BGEZL V1, __fmt_d_needed
9D00D6E8  7C020844   INS V0, ZERO, 1, 1
9D00D6EC  1000FFC7   BEQ ZERO, ZERO, __fmt_d_needed
9D00D6F0  8FA20020   LW V0, 32(SP)
---  /data01/build/bamboo/xml-data/build-dir/M32DEV-GMB34-JOB1/src/xc32-musl-stdlib/musl/musl-1.1.18/src/stdio/mchp/__fmt_a.c
-----*  Optimizer-Generated Procedural Abstractions  *----------------------------------------------
9D004A84  8CCA0000   LW T2, 0(A2)
9D004A88  27BDFF68   ADDIU SP, SP, -152
9D004A8C  8CCB0004   LW T3, 4(A2)
9D004A90  F7BC0088   SDC1 F28, 136(SP)
9D004A94  448A0000   MTC1 T2, F0
9D004A98  4480E000   MTC1 ZERO, F28
9D004A9C  44EB0000   MTHC1 T3, F0
9D004AA0  44E0E000   MTHC1 ZERO, F28
9D004AA4  8CA20010   LW V0, 16(A1)
9D004AA8  463C003C   C.LT.D F0, F28
9D004AAC  AFB40050   SW S4, 80(SP)
9D004AB0  AFB20048   SW S2, 72(SP)
9D004AB4  AFB10044   SW S1, 68(SP)
9D004AB8  AFB00040   SW S0, 64(SP)
9D004ABC  AFBF0064   SW RA, 100(SP)
9D004AC0  AFBE0060   SW FP, 96(SP)
9D004AC4  AFB7005C   SW S7, 92(SP)
9D004AC8  AFB60058   SW S6, 88(SP)
9D004ACC  AFB50054   SW S5, 84(SP)
9D004AD0  AFB3004C   SW S3, 76(SP)
9D004AD4  F7BA0080   SDC1 F26, 128(SP)
9D004AD8  F7B80078   SDC1 F24, 120(SP)
9D004ADC  F7B60070   SDC1 F22, 112(SP)
9D004AE0  F7B40068   SDC1 F20, 104(SP)
9D004AE4  AFA40098   SW A0, 152(SP)
9D004AE8  8CB10000   LW S1, 0(A1)
9D004AEC  8CB40004   LW S4, 4(A1)
9D004AF0  8CB20008   LW S2, 8(A1)
9D004AF4  AFA20020   SW V0, 32(SP)
9D004AF8  45010009   BC1T __fmt_a_needed
9D004AFC  8CB0000C   LW S0, 12(A1)
9D004B00  32220004   ANDI V0, S1, 4
9D004B04  5440000D   BNEL V0, ZERO, __fmt_a_needed
9D004B08  2402002B   ADDIU V0, ZERO, 43
9D004B0C  32350008   ANDI S5, S1, 8
9D004B10  12A0000D   BEQ S5, ZERO, __fmt_a::__DOUBLE_BITS
9D004B14  02404025   OR T0, S2, ZERO
9D004B18  10000008   BEQ ZERO, ZERO, __fmt_a_needed
9D004B1C  24020020   ADDIU V0, ZERO, 32
9D004B20  3C028000   LUI V0, -32768
9D004B24  004B1026   XOR V0, V0, T3
9D004B28  AFA2001C   SW V0, 28(SP)
9D004B2C  AFAA0018   SW T2, 24(SP)
9D004B30  8FAA0018   LW T2, 24(SP)
9D004B34  8FAB001C   LW T3, 28(SP)
9D004B38  2402002D   ADDIU V0, ZERO, 45
9D004B3C  A2020000   SB V0, 0(S0)
9D004B40  2648FFFF   ADDIU T0, S2, -1
9D004B44  24150001   ADDIU S5, ZERO, 1
9D004B48  24E7FFBF   ADDIU A3, A3, -65
9D004B4C  01402825   OR A1, T2, ZERO
9D004B50  7D62F000   EXT V0, T3, 0, 31
9D004B54  02152021   ADDU A0, S0, S5
9D004B58  15400026   BNE T2, ZERO, __fmt_a::__DOUBLE_BITS
9D004B5C  2CE7001A   SLTIU A3, A3, 26
9D004B60  3C037FF0   LUI V1, 32752
9D004B64  14430024   BNE V0, V1, __fmt_a_needed
9D004B68  3C067FF0   LUI A2, 32752
9D004B6C  3C139D01   LUI S3, -25343
9D004B70  02152021   ADDU A0, S0, S5
9D004B74  10E00003   BEQ A3, ZERO, __fmt_a_needed
9D004B78  26653D1C   ADDIU A1, S3, 15644
9D004B7C  3C059D01   LUI A1, -25343
9D004B80  24A53D18   ADDIU A1, A1, 15640
9D004B84  0F404D83   JAL strcpy
9D004B88  00000000   NOP
9D004B8C  26643D1C   ADDIU A0, S3, 15644
9D004B90  0F4034B6   JAL strlen
9D004B94  00000000   NOP
9D004B98  8FA40098   LW A0, 152(SP)
9D004B9C  AFB10010   SW S1, 16(SP)
9D004BA0  02403825   OR A3, S2, ZERO
9D004BA4  02002825   OR A1, S0, ZERO
9D004BA8  0F403C85   JAL __pad
9D004BAC  00403025   OR A2, V0, ZERO
9D004BB0  8FBF0064   LW RA, 100(SP)
9D004BB4  8FBE0060   LW FP, 96(SP)
9D004BB8  8FB7005C   LW S7, 92(SP)
9D004BBC  8FB60058   LW S6, 88(SP)
9D004BC0  8FB50054   LW S5, 84(SP)
9D004BC4  8FB40050   LW S4, 80(SP)
9D004BC8  8FB3004C   LW S3, 76(SP)
9D004BCC  8FB20048   LW S2, 72(SP)
9D004BD0  8FB10044   LW S1, 68(SP)
9D004BD4  8FB00040   LW S0, 64(SP)
9D004BD8  D7BC0088   LDC1 F28, 136(SP)
9D004BDC  D7BA0080   LDC1 F26, 128(SP)
9D004BE0  D7B80078   LDC1 F24, 120(SP)
9D004BE4  D7B60070   LDC1 F22, 112(SP)
9D004BE8  D7B40068   LDC1 F20, 104(SP)
9D004BEC  03E00008   JR RA
9D004BF0  27BD0098   ADDIU SP, SP, 152
9D004BF4  3C067FF0   LUI A2, 32752
9D004BF8  24C30001   ADDIU V1, A2, 1
9D004BFC  0043182B   SLTU V1, V0, V1
9D004C00  50600006   BEQL V1, ZERO, __fmt_a_needed
9D004C04  3C139D01   LUI S3, -25343
9D004C08  5446000C   BNEL V0, A2, __fmt_a_needed
9D004C0C  448A0000   MTC1 T2, F0
9D004C10  50A0000A   BEQL A1, ZERO, __fmt_a_needed
9D004C14  448A0000   MTC1 T2, F0
9D004C18  3C139D01   LUI S3, -25343
9D004C1C  10E00003   BEQ A3, ZERO, __fmt_a_needed
9D004C20  26653D24   ADDIU A1, S3, 15652
9D004C24  3C059D01   LUI A1, -25343
9D004C28  24A53D20   ADDIU A1, A1, 15648
9D004C2C  0F404D83   JAL strcpy
9D004C30  00000000   NOP
9D004C34  1000FFD6   BEQ ZERO, ZERO, __fmt_a_needed
9D004C38  26643D24   ADDIU A0, S3, 15652
9D004C3C  24030030   ADDIU V1, ZERO, 48
9D004C40  44EB0000   MTHC1 T3, F0
9D004C44  A0830000   SB V1, 0(A0)
9D004C48  26A20001   ADDIU V0, S5, 1
9D004C4C  24030058   ADDIU V1, ZERO, 88
9D004C50  24040078   ADDIU A0, ZERO, 120
9D004C54  463C0132   C.EQ.D 1, F0, F28
9D004C58  02021021   ADDU V0, S0, V0
9D004C5C  0087180A   MOVZ V1, A0, A3
9D004C60  A0430000   SB V1, 0(V0)
9D004C64  3C029D01   LUI V0, -25343
9D004C68  26B50002   ADDIU S5, S5, 2
9D004C6C  2517FFFE   ADDIU S7, T0, -2
9D004C70  00009825   OR S3, ZERO, ZERO
9D004C74  450400AA   BC1F 1, __fmt_a_needed
9D004C78  D4543688   LDC1 F20, 13960(V0)
9D004C7C  448AC000   MTC1 T2, F24
9D004C80  3C049D01   LUI A0, -25343
9D004C84  2A9E0000   SLTI FP, S4, 0
9D004C88  24020018   ADDIU V0, ZERO, 24
9D004C8C  D49A36A0   LDC1 F26, 13984(A0)
9D004C90  029E100A   MOVZ V0, S4, FP
9D004C94  4620A586   MOV.D F22, F20
9D004C98  44EBC000   MTHC1 T3, F24
9D004C9C  0040F025   OR FP, V0, ZERO
9D004CA0  0000B025   OR S6, ZERO, ZERO
9D004CA4  4636C303   DIV.D F12, F24, F22
9D004CA8  AFA40028   SW A0, 40(SP)
9D004CAC  AFA70024   SW A3, 36(SP)
9D004CB0  AFAA0018   SW T2, 24(SP)
9D004CB4  0F40426F   JAL floor
9D004CB8  AFAB001C   SW T3, 28(SP)
9D004CBC  46360082   MUL.D F2, F0, F22
9D004CC0  26C60001   ADDIU A2, S6, 1
9D004CC4  463AB582   MUL.D F22, F22, F26
9D004CC8  8FAA0018   LW T2, 24(SP)
9D004CCC  8FAB001C   LW T3, 28(SP)
9D004CD0  8FA70024   LW A3, 36(SP)
9D004CD4  8FA40028   LW A0, 40(SP)
9D004CD8  06810004   BGEZ S4, __fmt_a_needed
9D004CDC  4622C601   SUB.D F24, F24, F2
9D004CE0  463CC532   C.EQ.D 5, F24, F28
9D004CE4  45150006   BC1T 5, __fmt_a_needed
9D004CE8  3C029D01   LUI V0, -25343
9D004CEC  02DE102A   SLT V0, S6, FP
9D004CF0  1440FFEC   BNE V0, ZERO, __fmt_a_needed
9D004CF4  00C0B025   OR S6, A2, ZERO
9D004CF8  27C60001   ADDIU A2, FP, 1
9D004CFC  3C029D01   LUI V0, -25343
9D004D00  D44236A8   LDC1 F2, 13992(V0)
9D004D04  4622B082   MUL.D F2, F22, F2
9D004D08  4622C63C   C.LT.D 6, F24, F2
9D004D0C  451B00A1   BC1TL 6, __fmt_a_needed
9D004D10  44801000   MTC1 ZERO, F2
9D004D14  4622C732   C.EQ.D 7, F24, F2
9D004D18  451E0008   BC1FL 7, __fmt_a_needed
9D004D1C  448A0000   MTC1 T2, F0
9D004D20  4620000D   TRUNC.W.D F0, F0
9D004D24  44020000   MFC1 V0, F0
9D004D28  44800000   MTC1 ZERO, F0
9D004D2C  30420001   ANDI V0, V0, 1
9D004D30  44E00000   MTHC1 ZERO, F0
9D004D34  46220092   MOVZ.D F2, F0, V0
9D004D38  448A0000   MTC1 T2, F0
9D004D3C  44EB0000   MTHC1 T3, F0
9D004D40  46220000   ADD.D F0, F0, F2
9D004D44  F7A00018   SDC1 F0, 24(SP)
9D004D48  8FA3001C   LW V1, 28(SP)
9D004D4C  8FA20018   LW V0, 24(SP)
9D004D50  14400004   BNE V0, ZERO, __fmt_a_needed
9D004D54  7C63F000   EXT V1, V1, 0, 31
9D004D58  3C027FF0   LUI V0, 32752
9D004D5C  5062FF84   BEQL V1, V0, __fmt_a_needed
9D004D60  3C139D01   LUI S3, -25343
9D004D64  8FA30020   LW V1, 32(SP)
9D004D68  D49636A0   LDC1 F22, 13984(A0)
9D004D6C  02A0B025   OR S6, S5, ZERO
9D004D70  2463FFFB   ADDIU V1, V1, -5
9D004D74  00001025   OR V0, ZERO, ZERO
9D004D78  0000F025   OR FP, ZERO, ZERO
9D004D7C  00005025   OR T2, ZERO, ZERO
9D004D80  AFA30024   SW V1, 36(SP)
9D004D84  8FA30024   LW V1, 36(SP)
9D004D88  02C3202A   SLT A0, S6, V1
9D004D8C  10800019   BEQ A0, ZERO, __fmt_a_needed
9D004D90  00000000   NOP
9D004D94  D7A00018   LDC1 F0, 24(SP)
9D004D98  AFA70038   SW A3, 56(SP)
9D004D9C  AFAA002C   SW T2, 44(SP)
9D004DA0  46340303   DIV.D F12, F0, F20
9D004DA4  AFA20030   SW V0, 48(SP)
9D004DA8  0F40426F   JAL floor
9D004DAC  AFA60028   SW A2, 40(SP)
9D004DB0  4620004D   TRUNC.W.D F1, F0
9D004DB4  44040800   MFC1 A0, F1
9D004DB8  8FA60028   LW A2, 40(SP)
9D004DBC  8FA20030   LW V0, 48(SP)
9D004DC0  8FAA002C   LW T2, 44(SP)
9D004DC4  14800075   BNE A0, ZERO, __fmt_a_needed
9D004DC8  8FA70038   LW A3, 56(SP)
9D004DCC  11400073   BEQ T2, ZERO, __fmt_a_needed
9D004DD0  00000000   NOP
9D004DD4  24420001   ADDIU V0, V0, 1
9D004DD8  46340002   MUL.D F0, F0, F20
9D004DDC  D7A10018   LDC1 F1, 24(SP)
9D004DE0  254A0001   ADDIU T2, T2, 1
9D004DE4  4636A502   MUL.D F20, F20, F22
9D004DE8  46200801   SUB.D F0, F1, F0
9D004DEC  14CAFFE5   BNE A2, T2, __fmt_a_needed
9D004DF0  F7A00018   SDC1 F0, 24(SP)
9D004DF4  57C00015   BNEL FP, ZERO, __fmt_a_needed
9D004DF8  8FA20020   LW V0, 32(SP)
9D004DFC  104000AA   BEQ V0, ZERO, __fmt_a_needed
9D004E00  02162021   ADDU A0, S0, S6
9D004E04  1A8000A8   BLEZ S4, __fmt_a_needed
9D004E08  32260001   ANDI A2, S1, 1
9D004E0C  54C000A7   BNEL A2, ZERO, __fmt_a_needed
9D004E10  32220010   ANDI V0, S1, 16
9D004E14  2406002E   ADDIU A2, ZERO, 46
9D004E18  A0860000   SB A2, 0(A0)
9D004E1C  00563021   ADDU A2, V0, S6
9D004E20  02063021   ADDU A2, S0, A2
9D004E24  240A0030   ADDIU T2, ZERO, 48
9D004E28  A08A0001   SB T2, 1(A0)
9D004E2C  24840001   ADDIU A0, A0, 1
9D004E30  5486FFFE   BNEL A0, A2, __fmt_a_needed
9D004E34  A08A0001   SB T2, 1(A0)
9D004E38  00561821   ADDU V1, V0, S6
9D004E3C  00021027   NOR V0, ZERO, V0
9D004E40  24760001   ADDIU S6, V1, 1
9D004E44  0057B821   ADDU S7, V0, S7
9D004E48  8FA20020   LW V0, 32(SP)
9D004E4C  02162021   ADDU A0, S0, S6
9D004E50  A0800000   SB ZERO, 0(A0)
9D004E54  2442FFFF   ADDIU V0, V0, -1
9D004E58  02023021   ADDU A2, S0, V0
9D004E5C  A0C00000   SB ZERO, 0(A2)
9D004E60  06610003   BGEZ S3, __fmt_a_needed
9D004E64  00005025   OR T2, ZERO, ZERO
9D004E68  00139823   SUBU S3, ZERO, S3
9D004E6C  240A0001   ADDIU T2, ZERO, 1
9D004E70  8FA30020   LW V1, 32(SP)
9D004E74  24060002   ADDIU A2, ZERO, 2
9D004E78  240C0001   ADDIU T4, ZERO, 1
9D004E7C  00C3A023   SUBU S4, A2, V1
9D004E80  240B000A   ADDIU T3, ZERO, 10
9D004E84  16600078   BNE S3, ZERO, __fmt_a_needed
9D004E88  2446FFFF   ADDIU A2, V0, -1
9D004E8C  02826821   ADDU T5, S4, V0
9D004E90  11AC0075   BEQ T5, T4, __fmt_a_needed
9D004E94  2405002B   ADDIU A1, ZERO, 43
9D004E98  240B002D   ADDIU T3, ZERO, 45
9D004E9C  016A280B   MOVN A1, T3, T2
9D004EA0  02063021   ADDU A2, S0, A2
9D004EA4  A0C50000   SB A1, 0(A2)
9D004EA8  2442FFFE   ADDIU V0, V0, -2
9D004EAC  24050050   ADDIU A1, ZERO, 80
9D004EB0  24060070   ADDIU A2, ZERO, 112
9D004EB4  00A7300B   MOVN A2, A1, A3
9D004EB8  02022821   ADDU A1, S0, V0
9D004EBC  02C2102A   SLT V0, S6, V0
9D004EC0  10400003   BEQ V0, ZERO, __fmt_a_needed
9D004EC4  A0A60000   SB A2, 0(A1)
9D004EC8  0F404D83   JAL strcpy
9D004ECC  00000000   NOP
9D004ED0  32220003   ANDI V0, S1, 3
9D004ED4  24030002   ADDIU V1, ZERO, 2
9D004ED8  1443FF2D   BNE V0, V1, __fmt_a_needed
9D004EDC  02002025   OR A0, S0, ZERO
9D004EE0  26F3FFFE   ADDIU S3, S7, -2
9D004EE4  1A60FF2A   BLEZ S3, __fmt_a_needed
9D004EE8  00000000   NOP
9D004EEC  0F4034B6   JAL strlen
9D004EF0  02002025   OR A0, S0, ZERO
9D004EF4  0055182A   SLT V1, V0, S5
9D004EF8  10600065   BEQ V1, ZERO, __fmt_a_needed
9D004EFC  02021821   ADDU V1, S0, V0
9D004F00  02603025   OR A2, S3, ZERO
9D004F04  24050030   ADDIU A1, ZERO, 48
9D004F08  0F4043C8   JAL memset
9D004F0C  02152021   ADDU A0, S0, S5
9D004F10  00009025   OR S2, ZERO, ZERO
9D004F14  1000FF1E   BEQ ZERO, ZERO, __fmt_a_needed
9D004F18  02002025   OR A0, S0, ZERO
9D004F1C  26730001   ADDIU S3, S3, 1
9D004F20  4634A000   ADD.D F0, F20, F20
9D004F24  448A0800   MTC1 T2, F1
9D004F28  44EB0800   MTHC1 T3, F1
9D004F2C  46200A3C   C.LT.D 2, F1, F0
9D004F30  450AFFFA   BC1FL 2, __fmt_a_needed
9D004F34  46200506   MOV.D F20, F0
9D004F38  3C029D01   LUI V0, -25343
9D004F3C  D4403690   LDC1 F0, 13968(V0)
9D004F40  3C029D01   LUI V0, -25343
9D004F44  D4423698   LDC1 F2, 13976(V0)
9D004F48  46200106   MOV.D F4, F0
9D004F4C  448A0800   MTC1 T2, F1
9D004F50  44EB0800   MTHC1 T3, F1
9D004F54  46340C3C   C.LT.D 4, F1, F20
9D004F58  4512FF49   BC1FL 4, __fmt_a_needed
9D004F5C  448AC000   MTC1 T2, F24
9D004F60  4620A182   MUL.D F6, F20, F0
9D004F64  463C3332   C.EQ.D 3, F6, F28
9D004F68  450E0008   BC1FL 3, __fmt_a_needed
9D004F6C  4624A502   MUL.D F20, F20, F4
9D004F70  448A0800   MTC1 T2, F1
9D004F74  4622A502   MUL.D F20, F20, F2
9D004F78  44EB0800   MTHC1 T3, F1
9D004F7C  46220842   MUL.D F1, F1, F2
9D004F80  440A0800   MFC1 T2, F1
9D004F84  446B0800   MFHC1 T3, F1
9D004F88  4624A502   MUL.D F20, F20, F4
9D004F8C  1000FFEF   BEQ ZERO, ZERO, __fmt_a_needed
9D004F90  2673FFFF   ADDIU S3, S3, -1
9D004F94  1000FF68   BEQ ZERO, ZERO, __fmt_a_needed
9D004F98  44E01000   MTHC1 ZERO, F2
9D004F9C  17C0000A   BNE FP, ZERO, __fmt_a_needed
9D004FA0  02C06025   OR T4, S6, ZERO
9D004FA4  51400009   BEQL T2, ZERO, __fmt_a_needed
9D004FA8  02167021   ADDU T6, S0, S6
9D004FAC  02165821   ADDU T3, S0, S6
9D004FB0  2403002E   ADDIU V1, ZERO, 46
9D004FB4  26F7FFFF   ADDIU S7, S7, -1
9D004FB8  A1630000   SB V1, 0(T3)
9D004FBC  26D60001   ADDIU S6, S6, 1
9D004FC0  241E0001   ADDIU FP, ZERO, 1
9D004FC4  02C06025   OR T4, S6, ZERO
9D004FC8  02167021   ADDU T6, S0, S6
9D004FCC  10000004   BEQ ZERO, ZERO, __fmt_a_needed
9D004FD0  00406825   OR T5, V0, ZERO
9D004FD4  A1C30000   SB V1, 0(T6)
9D004FD8  25ADFFFF   ADDIU T5, T5, -1
9D004FDC  25CE0001   ADDIU T6, T6, 1
9D004FE0  15A0FFFC   BNE T5, ZERO, __fmt_a_needed
9D004FE4  24030030   ADDIU V1, ZERO, 48
9D004FE8  004C6021   ADDU T4, V0, T4
9D004FEC  26C30001   ADDIU V1, S6, 1
9D004FF0  26E8FFFF   ADDIU T0, S7, -1
9D004FF4  288D000A   SLTI T5, A0, 10
9D004FF8  0062B021   ADDU S6, V1, V0
9D004FFC  0102B823   SUBU S7, T0, V0
9D005000  020C6021   ADDU T4, S0, T4
9D005004  11A00002   BEQ T5, ZERO, __fmt_a_needed
9D005008  24820057   ADDIU V0, A0, 87
9D00500C  24820030   ADDIU V0, A0, 48
9D005010  50E00013   BEQL A3, ZERO, __fmt_a_needed
9D005014  A1820000   SB V0, 0(T4)
9D005018  34440020   ORI A0, V0, 32
9D00501C  2484FF9F   ADDIU A0, A0, -97
9D005020  2C84001A   SLTIU A0, A0, 26
9D005024  5080000E   BEQL A0, ZERO, __fmt_a_needed
9D005028  A1820000   SB V0, 0(T4)
9D00502C  00402025   OR A0, V0, ZERO
9D005030  AFA7003C   SW A3, 60(SP)
9D005034  AFAC0038   SW T4, 56(SP)
9D005038  AFAA002C   SW T2, 44(SP)
9D00503C  F7A00030   SDC1 F0, 48(SP)
9D005040  0F404E5B   JAL toupper
9D005044  AFA60028   SW A2, 40(SP)
9D005048  8FA7003C   LW A3, 60(SP)
9D00504C  8FAC0038   LW T4, 56(SP)
9D005050  8FAA002C   LW T2, 44(SP)
9D005054  D7A00030   LDC1 F0, 48(SP)
9D005058  8FA60028   LW A2, 40(SP)
9D00505C  A1820000   SB V0, 0(T4)
9D005060  1000FF5D   BEQ ZERO, ZERO, __fmt_a_needed
9D005064  00001025   OR V0, ZERO, ZERO
9D005068  026B001A   DIV S3, T3
9D00506C  016001F4   TEQ T3, ZERO
9D005070  02066821   ADDU T5, S0, A2
9D005074  00C01025   OR V0, A2, ZERO
9D005078  26F7FFFF   ADDIU S7, S7, -1
9D00507C  00003010   MFHI A2
9D005080  24C60030   ADDIU A2, A2, 48
9D005084  A1A60000   SB A2, 0(T5)
9D005088  1000FF7E   BEQ ZERO, ZERO, __fmt_a_needed
9D00508C  00009812   MFLO S3
9D005090  80640000   LB A0, 0(V1)
9D005094  02E21821   ADDU V1, S7, V0
9D005098  02031821   ADDU V1, S0, V1
9D00509C  A064FFFE   SB A0, -2(V1)
9D0050A0  1000FF94   BEQ ZERO, ZERO, __fmt_a_needed
9D0050A4  2442FFFF   ADDIU V0, V0, -1
9D0050A8  32220010   ANDI V0, S1, 16
9D0050AC  1040FF67   BEQ V0, ZERO, __fmt_a_needed
9D0050B0  8FA20020   LW V0, 32(SP)
9D0050B4  2402002E   ADDIU V0, ZERO, 46
9D0050B8  26D60001   ADDIU S6, S6, 1
9D0050BC  1000FF62   BEQ ZERO, ZERO, __fmt_a_needed
9D0050C0  A0820000   SB V0, 0(A0)
---  /data01/build/bamboo/xml-data/build-dir/M32DEV-GMB34-JOB1/src/xc32-musl-stdlib/musl/musl-1.1.18/src/stdio/__uflow.c
-----*  Optimizer-Generated Procedural Abstractions  *----------------------------------------------
9D012824  27BDFFE0   ADDIU SP, SP, -32
9D012828  AFB00018   SW S0, 24(SP)
9D01282C  AFBF001C   SW RA, 28(SP)
9D012830  0F404501   JAL __toread
9D012834  00808025   OR S0, A0, ZERO
9D012838  50400006   BEQL V0, ZERO, 0x9D012854
9D01283C  8E020044   LW V0, 68(S0)
9D012840  2402FFFF   ADDIU V0, ZERO, -1
9D012844  8FBF001C   LW RA, 28(SP)
9D012848  8FB00018   LW S0, 24(SP)
9D01284C  03E00008   JR RA
9D012850  27BD0020   ADDIU SP, SP, 32
9D012854  24060001   ADDIU A2, ZERO, 1
9D012858  27A50010   ADDIU A1, SP, 16
9D01285C  0040F809   JALR V0
9D012860  02002025   OR A0, S0, ZERO
9D012864  24030001   ADDIU V1, ZERO, 1
9D012868  1443FFF5   BNE V0, V1, 0x9D012840
9D01286C  93A20010   LBU V0, 16(SP)
9D012870  1000FFF5   BEQ ZERO, ZERO, 0x9D012848
9D012874  8FBF001C   LW RA, 28(SP)
---  /data01/build/bamboo/xml-data/build-dir/M32DEV-GMB34-JOB1/src/xc32-musl-stdlib/musl/musl-1.1.18/src/stdio/__toread.c
-----*  Optimizer-Generated Procedural Abstractions  *----------------------------------------------
00000000  00000000   NOP
00000008  00000000   NOP
00000010  00000000   NOP
9D011404  27BDFFE8   ADDIU SP, SP, -24
9D011408  AFB00010   SW S0, 16(SP)
9D01140C  AFBF0014   SW RA, 20(SP)
9D011410  80820048   LB V0, 72(A0)
9D011414  2443FFFF   ADDIU V1, V0, -1
9D011418  00431025   OR V0, V0, V1
9D01141C  A0820048   SB V0, 72(A0)
9D011420  8C830018   LW V1, 24(A0)
9D011424  8C820014   LW V0, 20(A0)
9D011428  0062102B   SLTU V0, V1, V0
9D01142C  10400005   BEQ V0, ZERO, 0x9D011444
9D011430  00808025   OR S0, A0, ZERO
9D011434  8C82002C   LW V0, 44(A0)
9D011438  00003025   OR A2, ZERO, ZERO
9D01143C  0040F809   JALR V0
9D011440  00002825   OR A1, ZERO, ZERO
9D011444  8E020004   LW V0, 4(S0)
9D011448  AE000028   SW ZERO, 40(S0)
9D01144C  AE000018   SW ZERO, 24(S0)
9D011450  30430002   ANDI V1, V0, 2
9D011454  10600008   BEQ V1, ZERO, 0x9D011478
9D011458  AE000014   SW ZERO, 20(S0)
9D01145C  34420010   ORI V0, V0, 16
9D011460  AE020004   SW V0, 4(S0)
9D011464  2402FFFF   ADDIU V0, ZERO, -1
9D011468  8FBF0014   LW RA, 20(SP)
9D01146C  8FB00010   LW S0, 16(SP)
9D011470  03E00008   JR RA
9D011474  27BD0018   ADDIU SP, SP, 24
9D011478  8E030008   LW V1, 8(S0)
9D01147C  8E04000C   LW A0, 12(S0)
9D011480  7C4200C0   EXT V0, V0, 3, 1
9D011484  00021023   SUBU V0, ZERO, V0
9D011488  00641821   ADDU V1, V1, A0
9D01148C  AE030040   SW V1, 64(S0)
9D011490  1000FFF5   BEQ ZERO, ZERO, 0x9D011468
9D011494  AE03003C   SW V1, 60(S0)
---  /data01/build/bamboo/xml-data/build-dir/M32DEV-GMB34-JOB1/src/xc32-musl-stdlib/musl/musl-1.1.18/src/smartio/__sio_sprintf_s.c
-----*  Optimizer-Generated Procedural Abstractions  *----------------------------------------------
00000000  00000000   NOP
00000008  00000000   NOP
00000010  00000000   NOP
---  /data01/build/bamboo/xml-data/build-dir/M32DEV-GMB34-JOB1/src/xc32-musl-stdlib/musl/musl-1.1.18/src/smartio/__sio_sprintf_dfosux.c
-----*  Optimizer-Generated Procedural Abstractions  *----------------------------------------------
00000000  00000000   NOP
00000008  00000000   NOP
00000010  00000000   NOP
00000018  00000000   NOP
00000020  00000000   NOP
00000028  00000000   NOP
00000030  00000000   NOP
00000038  00000000   NOP
---  /data01/build/bamboo/xml-data/build-dir/M32DEV-GMB34-JOB1/src/xc32-musl-stdlib/musl/musl-1.1.18/src/smartio/__int_vsprintf.c
-----*  Optimizer-Generated Procedural Abstractions  *----------------------------------------------
9D01365C  00C03825   OR A3, A2, ZERO
9D013660  00A03025   OR A2, A1, ZERO
9D013664  3C057FFF   LUI A1, 32767
9D013668  27BDFFE8   ADDIU SP, SP, -24
9D01366C  AFBF0014   SW RA, 20(SP)
9D013670  0F404706   JAL __vsnprintf
9D013674  34A5FFFF   ORI A1, A1, -1
9D013678  8FBF0014   LW RA, 20(SP)
9D01367C  03E00008   JR RA
9D013680  27BD0018   ADDIU SP, SP, 24
---  /data01/build/bamboo/xml-data/build-dir/M32DEV-GMB34-JOB1/src/xc32-musl-stdlib/musl/musl-1.1.18/src/smartio/__int_vsnprintf.c
-----*  Optimizer-Generated Procedural Abstractions  *----------------------------------------------
9D011C18  27BDFFC8   ADDIU SP, SP, -56
9D011C1C  2403FFFF   ADDIU V1, ZERO, -1
9D011C20  AFA30010   SW V1, 16(SP)
9D011C24  24030102   ADDIU V1, ZERO, 258
9D011C28  00A01025   OR V0, A1, ZERO
9D011C2C  AFBF0034   SW RA, 52(SP)
9D011C30  00C02825   OR A1, A2, ZERO
9D011C34  AFA30014   SW V1, 20(SP)
9D011C38  14800002   BNE A0, ZERO, 0x9D011C44
9D011C3C  00E03025   OR A2, A3, ZERO
9D011C40  27A4002C   ADDIU A0, SP, 44
9D011C44  AFA40018   SW A0, 24(SP)
9D011C48  AFA2001C   SW V0, 28(SP)
9D011C4C  10400002   BEQ V0, ZERO, 0x9D011C58
9D011C50  00001825   OR V1, ZERO, ZERO
9D011C54  2443FFFF   ADDIU V1, V0, -1
9D011C58  04410008   BGEZ V0, 0x9D011C7C
9D011C5C  AFA30020   SW V1, 32(SP)
9D011C60  3C028000   LUI V0, -32768
9D011C64  2403004F   ADDIU V1, ZERO, 79
9D011C68  AC432528   SW V1, 9512(V0)
9D011C6C  2402FFFF   ADDIU V0, ZERO, -1
9D011C70  8FBF0034   LW RA, 52(SP)
9D011C74  03E00008   JR RA
9D011C78  27BD0038   ADDIU SP, SP, 56
9D011C7C  AFA40028   SW A0, 40(SP)
9D011C80  AFA40024   SW A0, 36(SP)
9D011C84  A0800000   SB ZERO, 0(A0)
9D011C88  0F404B83   JAL __vfprintf
9D011C8C  27A40010   ADDIU A0, SP, 16
9D011C90  1000FFF8   BEQ ZERO, ZERO, 0x9D011C74
9D011C94  8FBF0034   LW RA, 52(SP)
---  /data01/build/bamboo/xml-data/build-dir/M32DEV-GMB34-JOB1/src/xc32-musl-stdlib/musl/musl-1.1.18/src/smartio/__int_vfprintf.c
-----*  Optimizer-Generated Procedural Abstractions  *----------------------------------------------
9D012E0C  27BDFFE0   ADDIU SP, SP, -32
9D012E10  AFB00018   SW S0, 24(SP)
9D012E14  AFA60010   SW A2, 16(SP)
9D012E18  00808025   OR S0, A0, ZERO
9D012E1C  AFBF001C   SW RA, 28(SP)
9D012E20  0F401431   JAL __printf_core
9D012E24  27A60010   ADDIU A2, SP, 16
9D012E28  8E030004   LW V1, 4(S0)
9D012E2C  8FBF001C   LW RA, 28(SP)
9D012E30  2404FFFF   ADDIU A0, ZERO, -1
9D012E34  30630010   ANDI V1, V1, 16
9D012E38  0083100B   MOVN V0, A0, V1
9D012E3C  8FB00018   LW S0, 24(SP)
9D012E40  03E00008   JR RA
9D012E44  27BD0020   ADDIU SP, SP, 32
---  /data01/build/bamboo/xml-data/build-dir/M32DEV-GMB34-JOB1/src/xc32-musl-stdlib/musl/musl-1.1.18/src/smartio/__int_sprintf.c
-----*  Optimizer-Generated Procedural Abstractions  *----------------------------------------------
9D0135BC  27BDFFE0   ADDIU SP, SP, -32
9D0135C4  27A60028   ADDIU A2, SP, 40
9D0135C8  AFBF001C   SW RA, 28(SP)
9D0135CC  AFA7002C   SW A3, 44(SP)
9D0135D0  0F404D97   JAL __vsprintf
9D0135D4  AFA60010   SW A2, 16(SP)
9D0135D8  8FBF001C   LW RA, 28(SP)
9D0135DC  03E00008   JR RA
9D0135E0  27BD0020   ADDIU SP, SP, 32
9D0135E4  27BDFFE0   ADDIU SP, SP, -32
9D0135EC  27A60028   ADDIU A2, SP, 40
9D0135F0  AFBF001C   SW RA, 28(SP)
9D0135F4  AFA7002C   SW A3, 44(SP)
9D0135F8  0F404D97   JAL __vsprintf
9D0135FC  AFA60010   SW A2, 16(SP)
9D013600  8FBF001C   LW RA, 28(SP)
9D013604  03E00008   JR RA
9D013608  27BD0020   ADDIU SP, SP, 32
---  /data01/build/bamboo/xml-data/build-dir/M32DEV-GMB34-JOB1/src/xc32-musl-stdlib/musl/musl-1.1.18/src/math/sin.c
-----*  Optimizer-Generated Procedural Abstractions  *----------------------------------------------
9D00E9B8  27BDFFD0   ADDIU SP, SP, -48
9D00E9BC  F7AC0030   SDC1 F12, 48(SP)
9D00E9C0  8FA40034   LW A0, 52(SP)
9D00E9C4  3C033FE9   LUI V1, 16361
9D00E9C8  246321FC   ADDIU V1, V1, 8700
9D00E9CC  7C82F000   EXT V0, A0, 0, 31
9D00E9D0  0043182B   SLTU V1, V0, V1
9D00E9D4  1060001B   BEQ V1, ZERO, 0x9D00EA44
9D00E9D8  AFBF002C   SW RA, 44(SP)
9D00E9DC  3C033E50   LUI V1, 15952
9D00E9E0  0043102B   SLTU V0, V0, V1
9D00E9E4  10400010   BEQ V0, ZERO, 0x9D00EA28
9D00E9E8  3C027FF0   LUI V0, 32752
9D00E9EC  00822024   AND A0, A0, V0
9D00E9F0  14800009   BNE A0, ZERO, 0x9D00EA18
9D00E9F4  3C029D01   LUI V0, -25343
9D00E9F8  3C029D01   LUI V0, -25343
9D00E9FC  D4403D48   LDC1 F0, 15688(V0)
9D00EA00  46206002   MUL.D F0, F12, F0
9D00EA04  F7A00018   SDC1 F0, 24(SP)
9D00EA08  8FBF002C   LW RA, 44(SP)
9D00EA0C  D7A00030   LDC1 F0, 48(SP)
9D00EA10  03E00008   JR RA
9D00EA14  27BD0030   ADDIU SP, SP, 48
9D00EA18  D4403D50   LDC1 F0, 15696(V0)
9D00EA1C  D7A10030   LDC1 F1, 48(SP)
9D00EA20  1000FFF8   BEQ ZERO, ZERO, 0x9D00EA04
9D00EA24  46200800   ADD.D F0, F1, F0
9D00EA28  44807000   MTC1 ZERO, F14
9D00EA2C  AFA00010   SW ZERO, 16(SP)
9D00EA30  44E07000   MTHC1 ZERO, F14
9D00EA34  0F40456E   JAL __sin
9D00EA38  00000000   NOP
9D00EA3C  1000FFF2   BEQ ZERO, ZERO, 0x9D00EA08
9D00EA40  F7A00030   SDC1 F0, 48(SP)
9D00EA44  3C037FF0   LUI V1, 32752
9D00EA48  0043102B   SLTU V0, V0, V1
9D00EA4C  14400004   BNE V0, ZERO, 0x9D00EA60
9D00EA50  D7A00030   LDC1 F0, 48(SP)
9D00EA54  46200001   SUB.D F0, F0, F0
9D00EA58  1000FFEB   BEQ ZERO, ZERO, 0x9D00EA08
9D00EA5C  F7A00030   SDC1 F0, 48(SP)
9D00EA60  0F4018FA   JAL __rem_pio2
9D00EA64  27A60018   ADDIU A2, SP, 24
9D00EA68  30420003   ANDI V0, V0, 3
9D00EA6C  24030001   ADDIU V1, ZERO, 1
9D00EA70  D7AE0020   LDC1 F14, 32(SP)
9D00EA74  1043000B   BEQ V0, V1, 0x9D00EAA4
9D00EA78  D7AC0018   LDC1 F12, 24(SP)
9D00EA7C  10400007   BEQ V0, ZERO, 0x9D00EA9C
9D00EA80  24040002   ADDIU A0, ZERO, 2
9D00EA84  1044000B   BEQ V0, A0, 0x9D00EAB4
9D00EA88  00000000   NOP
9D00EA8C  0F404663   JAL __cos
9D00EA90  00000000   NOP
9D00EA94  1000000A   BEQ ZERO, ZERO, 0x9D00EAC0
9D00EA98  44650000   MFHC1 A1, F0
9D00EA9C  1000FFE5   BEQ ZERO, ZERO, 0x9D00EA34
9D00EAA0  AFA30010   SW V1, 16(SP)
9D00EAA4  0F404663   JAL __cos
9D00EAA8  00000000   NOP
9D00EAAC  1000FFD6   BEQ ZERO, ZERO, 0x9D00EA08
9D00EAB0  F7A00030   SDC1 F0, 48(SP)
9D00EAB4  0F40456E   JAL __sin
9D00EAB8  AFA30010   SW V1, 16(SP)
9D00EABC  44650000   MFHC1 A1, F0
9D00EAC0  44040000   MFC1 A0, F0
9D00EAC4  3C028000   LUI V0, -32768
9D00EAC8  00451026   XOR V0, V0, A1
9D00EACC  AFA40030   SW A0, 48(SP)
9D00EAD0  1000FFCD   BEQ ZERO, ZERO, 0x9D00EA08
9D00EAD4  AFA20034   SW V0, 52(SP)
---  /data01/build/bamboo/xml-data/build-dir/M32DEV-GMB34-JOB1/src/xc32-musl-stdlib/musl/musl-1.1.18/src/math/scalbn.c
-----*  Optimizer-Generated Procedural Abstractions  *----------------------------------------------
9D011878  28C20400   SLTI V0, A2, 1024
9D01187C  14400013   BNE V0, ZERO, 0x9D0118CC
9D011880  28C3FC02   SLTI V1, A2, -1022
9D011884  3C029D01   LUI V0, -25343
9D011888  D4403D38   LDC1 F0, 15672(V0)
9D01188C  24C2FC01   ADDIU V0, A2, -1023
9D011890  28430400   SLTI V1, V0, 1024
9D011894  14600006   BNE V1, ZERO, 0x9D0118B0
9D011898  46206302   MUL.D F12, F12, F0
9D01189C  46206302   MUL.D F12, F12, F0
9D0118A0  24C2F802   ADDIU V0, A2, -2046
9D0118A4  28440400   SLTI A0, V0, 1024
9D0118A8  240303FF   ADDIU V1, ZERO, 1023
9D0118AC  0064100A   MOVZ V0, V1, A0
9D0118B0  00002025   OR A0, ZERO, ZERO
9D0118B4  244203FF   ADDIU V0, V0, 1023
9D0118B8  44840000   MTC1 A0, F0
9D0118BC  00022D00   SLL A1, V0, 20
9D0118C0  44E50000   MTHC1 A1, F0
9D0118C4  03E00008   JR RA
9D0118C8  46206002   MUL.D F0, F12, F0
9D0118CC  1060FFF8   BEQ V1, ZERO, 0x9D0118B0
9D0118D0  00C01025   OR V0, A2, ZERO
9D0118D4  3C039D01   LUI V1, -25343
9D0118D8  D4603D40   LDC1 F0, 15680(V1)
9D0118DC  24C203C9   ADDIU V0, A2, 969
9D0118E0  2843FC02   SLTI V1, V0, -1022
9D0118E4  1060FFF2   BEQ V1, ZERO, 0x9D0118B0
9D0118E8  46206302   MUL.D F12, F12, F0
9D0118EC  24C20792   ADDIU V0, A2, 1938
9D0118F0  2844FC02   SLTI A0, V0, -1022
9D0118F4  2403FC02   ADDIU V1, ZERO, -1022
9D0118F8  46206302   MUL.D F12, F12, F0
9D0118FC  1000FFEC   BEQ ZERO, ZERO, 0x9D0118B0
9D011900  0064100B   MOVN V0, V1, A0
---  /data01/build/bamboo/xml-data/build-dir/M32DEV-GMB34-JOB1/src/xc32-musl-stdlib/musl/musl-1.1.18/src/math/fma.c
-----*  Optimizer-Generated Procedural Abstractions  *----------------------------------------------
9D003D9C  27BDFF70   ADDIU SP, SP, -144
9D003DA0  44066000   MFC1 A2, F12
9D003DA4  44676000   MFHC1 A3, F12
9D003DA8  27A40030   ADDIU A0, SP, 48
9D003DAC  F7AC0090   SDC1 F12, 144(SP)
9D003DB0  AFBF007C   SW RA, 124(SP)
9D003DB4  AFB00058   SW S0, 88(SP)
9D003DB8  F7B40080   SDC1 F20, 128(SP)
9D003DBC  F7AE0098   SDC1 F14, 152(SP)
9D003DC0  D7B400A0   LDC1 F20, 160(SP)
9D003DC4  AFBE0078   SW FP, 120(SP)
9D003DC8  AFB70074   SW S7, 116(SP)
9D003DCC  AFB60070   SW S6, 112(SP)
9D003DD0  AFB5006C   SW S5, 108(SP)
9D003DD4  AFB40068   SW S4, 104(SP)
9D003DD8  AFB30064   SW S3, 100(SP)
9D003DDC  AFB20060   SW S2, 96(SP)
9D003DE0  0F4045FB   JAL normalize
9D003DE4  AFB1005C   SW S1, 92(SP)
9D003DE8  D7AE0098   LDC1 F14, 152(SP)
9D003DEC  27A40020   ADDIU A0, SP, 32
9D003DF0  8FAE0038   LW T6, 56(SP)
9D003DF4  44067000   MFC1 A2, F14
9D003DF8  0F4045FB   JAL normalize
9D003DFC  44677000   MFHC1 A3, F14
9D003E00  4406A000   MFC1 A2, F20
9D003E04  4467A000   MFHC1 A3, F20
9D003E08  27A40010   ADDIU A0, SP, 16
9D003E0C  0F4045FB   JAL normalize
9D003E10  8FB00028   LW S0, 40(SP)
9D003E14  29C203CB   SLTI V0, T6, 971
9D003E18  D7AE0098   LDC1 F14, 152(SP)
9D003E1C  10400004   BEQ V0, ZERO, 0x9D003E30
9D003E20  D7AC0090   LDC1 F12, 144(SP)
9D003E24  2A0203CB   SLTI V0, S0, 971
9D003E28  14400003   BNE V0, ZERO, 0x9D003E38
9D003E2C  8FA80018   LW T0, 24(SP)
9D003E30  10000006   BEQ ZERO, ZERO, 0x9D003E4C
9D003E34  4E8E6521   MADD.D F20, F20, F12, F14
9D003E38  290203CB   SLTI V0, T0, 971
9D003E3C  14400011   BNE V0, ZERO, 0x9D003E84
9D003E40  240203CB   ADDIU V0, ZERO, 971
9D003E44  55020001   BNEL T0, V0, 0x9D003E4C
9D003E48  4E8E6521   MADD.D F20, F20, F12, F14
9D003E4C  8FBF007C   LW RA, 124(SP)
9D003E50  4620A006   MOV.D F0, F20
9D003E54  8FBE0078   LW FP, 120(SP)
9D003E58  8FB70074   LW S7, 116(SP)
9D003E5C  8FB60070   LW S6, 112(SP)
9D003E60  8FB5006C   LW S5, 108(SP)
9D003E64  8FB40068   LW S4, 104(SP)
9D003E68  8FB30064   LW S3, 100(SP)
9D003E6C  8FB20060   LW S2, 96(SP)
9D003E70  8FB1005C   LW S1, 92(SP)
9D003E74  8FB00058   LW S0, 88(SP)
9D003E78  D7B40080   LDC1 F20, 128(SP)
9D003E7C  03E00008   JR RA
9D003E80  27BD0090   ADDIU SP, SP, 144
9D003E84  8FA40030   LW A0, 48(SP)
9D003E88  8FB80020   LW T8, 32(SP)
9D003E8C  8FA20024   LW V0, 36(SP)
9D003E90  8FA70034   LW A3, 52(SP)
9D003E94  00980019   MULTU 0, A0, T8
9D003E98  020E8021   ADDU S0, S0, T6
9D003E9C  01108823   SUBU S1, T0, S0
9D003EA0  8FB40010   LW S4, 16(SP)
9D003EA4  8FAA0014   LW T2, 20(SP)
9D003EA8  00006810   MFHI T5
9D003EAC  00006012   MFLO T4
9D003EB0  01805825   OR T3, T4, ZERO
9D003EB4  00820019   MULTU 0, A0, V0
9D003EB8  00009012   MFLO S2
9D003EBC  00009810   MFHI S3
9D003EC0  00F80019   MULTU 0, A3, T8
9D003EC4  0000C012   MFLO T8
9D003EC8  02584821   ADDU T1, S2, T8
9D003ECC  0132202B   SLTU A0, T1, S2
9D003ED0  0000C810   MFHI T9
9D003ED4  0279B021   ADDU S6, S3, T9
9D003ED8  00962021   ADDU A0, A0, S6
9D003EDC  00E20019   MULTU 0, A3, V0
9D003EE0  012D4821   ADDU T1, T1, T5
9D003EE4  012D382B   SLTU A3, T1, T5
9D003EE8  00001012   MFLO V0
9D003EEC  00442021   ADDU A0, V0, A0
9D003EF0  00873821   ADDU A3, A0, A3
9D003EF4  00001810   MFHI V1
9D003EF8  0082B02B   SLTU S6, A0, V0
9D003EFC  02C3B021   ADDU S6, S6, V1
9D003F00  00E4182B   SLTU V1, A3, A0
9D003F04  00E09825   OR S3, A3, ZERO
9D003F08  1A2000A4   BLEZ S1, 0x9D00419C
9D003F0C  0076B021   ADDU S6, V1, S6
9D003F10  2A220040   SLTI V0, S1, 64
9D003F14  50400070   BEQL V0, ZERO, 0x9D0040D8
9D003F18  2631FFC0   ADDIU S1, S1, -64
9D003F1C  02802025   OR A0, S4, ZERO
9D003F20  01402825   OR A1, T2, ZERO
9D003F24  02203025   OR A2, S1, ZERO
9D003F28  AFA90050   SW T1, 80(SP)
9D003F2C  AFAC0044   SW T4, 68(SP)
9D003F30  F7AE0098   SDC1 F14, 152(SP)
9D003F34  F7AC0090   SDC1 F12, 144(SP)
9D003F38  0F404BB0   JAL __ashldi3
9D003F3C  AFAA0048   SW T2, 72(SP)
9D003F40  8FAA0048   LW T2, 72(SP)
9D003F44  24060040   ADDIU A2, ZERO, 64
9D003F48  02802025   OR A0, S4, ZERO
9D003F4C  01402825   OR A1, T2, ZERO
9D003F50  00D13023   SUBU A2, A2, S1
9D003F54  00409025   OR S2, V0, ZERO
9D003F58  0F404BA1   JAL __lshrdi3
9D003F5C  AFA30040   SW V1, 64(SP)
9D003F60  8FAC0040   LW T4, 64(SP)
9D003F64  D7AC0090   LDC1 F12, 144(SP)
9D003F68  D7AE0098   LDC1 F14, 152(SP)
9D003F6C  8FAB0044   LW T3, 68(SP)
9D003F70  8FA90050   LW T1, 80(SP)
9D003F74  0040A025   OR S4, V0, ZERO
9D003F78  00605025   OR T2, V1, ZERO
9D003F7C  8FA2002C   LW V0, 44(SP)
9D003F80  8FB1003C   LW S1, 60(SP)
9D003F84  02228826   XOR S1, S1, V0
9D003F88  8FA2001C   LW V0, 28(SP)
9D003F8C  145100AF   BNE V0, S1, 0x9D00424C
9D003F90  01724023   SUBU T0, T3, S2
9D003F94  024B4021   ADDU T0, S2, T3
9D003F98  0112302B   SLTU A2, T0, S2
9D003F9C  01892821   ADDU A1, T4, T1
9D003FA0  00C5B821   ADDU S7, A2, A1
9D003FA4  02EC102B   SLTU V0, S7, T4
9D003FA8  14400007   BNE V0, ZERO, 0x9D003FC8
9D003FAC  24040001   ADDIU A0, ZERO, 1
9D003FB0  55970005   BNEL T4, S7, 0x9D003FC8
9D003FB4  00002025   OR A0, ZERO, ZERO
9D003FB8  0112302B   SLTU A2, T0, S2
9D003FBC  14C00003   BNE A2, ZERO, 0x9D003FCC
9D003FC0  0293A821   ADDU S5, S4, S3
9D003FC4  00002025   OR A0, ZERO, ZERO
9D003FC8  0293A821   ADDU S5, S4, S3
9D003FCC  02B4F02B   SLTU FP, S5, S4
9D003FD0  01561821   ADDU V1, T2, S6
9D003FD4  0095A821   ADDU S5, A0, S5
9D003FD8  03C3F021   ADDU FP, FP, V1
9D003FDC  02A4182B   SLTU V1, S5, A0
9D003FE0  007EF021   ADDU FP, V1, FP
9D003FE4  02A02025   OR A0, S5, ZERO
9D003FE8  03C02825   OR A1, FP, ZERO
9D003FEC  0F40479E   JAL a_clz_64
9D003FF0  AFA80040   SW T0, 64(SP)
9D003FF4  8FA80040   LW T0, 64(SP)
9D003FF8  2452FFFF   ADDIU S2, V0, -1
9D003FFC  24060040   ADDIU A2, ZERO, 64
9D004000  01002025   OR A0, T0, ZERO
9D004004  00D23023   SUBU A2, A2, S2
9D004008  0F404BA1   JAL __lshrdi3
9D00400C  02E02825   OR A1, S7, ZERO
9D004010  02403025   OR A2, S2, ZERO
9D004014  02A02025   OR A0, S5, ZERO
9D004018  03C02825   OR A1, FP, ZERO
9D00401C  0040A025   OR S4, V0, ZERO
9D004020  0F404BB0   JAL __ashldi3
9D004024  00609825   OR S3, V1, ZERO
9D004028  8FA80040   LW T0, 64(SP)
9D00402C  02403025   OR A2, S2, ZERO
9D004030  02E02825   OR A1, S7, ZERO
9D004034  01002025   OR A0, T0, ZERO
9D004038  0282A025   OR S4, S4, V0
9D00403C  0F404BB0   JAL __ashldi3
9D004040  02639825   OR S3, S3, V1
9D004044  00431025   OR V0, V0, V1
9D004048  0002102B   SLTU V0, ZERO, V0
9D00404C  26100040   ADDIU S0, S0, 64
9D004050  02821025   OR V0, S4, V0
9D004054  02123023   SUBU A2, S0, S2
9D004058  00402025   OR A0, V0, ZERO
9D00405C  12200006   BEQ S1, ZERO, 0x9D004078
9D004060  02602825   OR A1, S3, ZERO
9D004064  00023823   SUBU A3, ZERO, V0
9D004068  0007182B   SLTU V1, ZERO, A3
9D00406C  00134023   SUBU T0, ZERO, S3
9D004070  00E02025   OR A0, A3, ZERO
9D004074  01032823   SUBU A1, T0, V1
9D004078  44840000   MTC1 A0, F0
9D00407C  28C3FBC4   SLTI V1, A2, -1084
9D004080  44E50000   MTHC1 A1, F0
9D004084  106000CF   BEQ V1, ZERO, 0x9D0043C4
9D004088  46A00321   CVT.D.L F12, F0
9D00408C  2403FBC3   ADDIU V1, ZERO, -1085
9D004090  14C300D0   BNE A2, V1, 0x9D0043D4
9D004094  00133D80   SLL A3, S3, 22
9D004098  122000AE   BEQ S1, ZERO, 0x9D004354
9D00409C  3C039D01   LUI V1, -25343
9D0040A0  3C039D01   LUI V1, -25343
9D0040A4  D4623890   LDC1 F2, 14480(V1)
9D0040A8  462C1032   C.EQ.D F2, F12
9D0040AC  450000AB   BC1F 0x9D00435C
9D0040B0  00021D40   SLL V1, V0, 21
9D0040B4  3C029D01   LUI V0, -25343
9D0040B8  D4403898   LDC1 F0, 14488(V0)
9D0040BC  3C029D01   LUI V0, -25343
9D0040C0  D45438A0   LDC1 F20, 14496(V0)
9D0040C4  46206302   MUL.D F12, F12, F0
9D0040C8  46206320   CVT.S.D F12, F12
9D0040CC  46006321   CVT.D.S F12, F12
9D0040D0  1000FF5E   BEQ ZERO, ZERO, 0x9D003E4C
9D0040D4  46346502   MUL.D F20, F12, F20
9D0040D8  12200053   BEQ S1, ZERO, 0x9D004228
9D0040DC  2510FFC0   ADDIU S0, T0, -64
9D0040E0  2A220040   SLTI V0, S1, 64
9D0040E4  5040004D   BEQL V0, ZERO, 0x9D00421C
9D0040E8  240B0001   ADDIU T3, ZERO, 1
9D0040EC  24150040   ADDIU S5, ZERO, 64
9D0040F0  02B1A823   SUBU S5, S5, S1
9D0040F4  01802025   OR A0, T4, ZERO
9D0040F8  01202825   OR A1, T1, ZERO
9D0040FC  02A03025   OR A2, S5, ZERO
9D004100  AFAA0044   SW T2, 68(SP)
9D004104  F7AE0098   SDC1 F14, 152(SP)
9D004108  F7AC0090   SDC1 F12, 144(SP)
9D00410C  AFAD004C   SW T5, 76(SP)
9D004110  AFAC0048   SW T4, 72(SP)
9D004114  0F404BB0   JAL __ashldi3
9D004118  AFA90040   SW T1, 64(SP)
9D00411C  8FAC0048   LW T4, 72(SP)
9D004120  8FA90040   LW T1, 64(SP)
9D004124  00439025   OR S2, V0, V1
9D004128  01802025   OR A0, T4, ZERO
9D00412C  01202825   OR A1, T1, ZERO
9D004130  0F404BA1   JAL __lshrdi3
9D004134  02203025   OR A2, S1, ZERO
9D004138  0012902B   SLTU S2, ZERO, S2
9D00413C  02602025   OR A0, S3, ZERO
9D004140  02C02825   OR A1, S6, ZERO
9D004144  02A03025   OR A2, S5, ZERO
9D004148  02429025   OR S2, S2, V0
9D00414C  0F404BB0   JAL __ashldi3
9D004150  0060B825   OR S7, V1, ZERO
9D004154  02425825   OR T3, S2, V0
9D004158  02E34825   OR T1, S7, V1
9D00415C  02602025   OR A0, S3, ZERO
9D004160  02C02825   OR A1, S6, ZERO
9D004164  02203025   OR A2, S1, ZERO
9D004168  AFAB0048   SW T3, 72(SP)
9D00416C  0F404BA1   JAL __lshrdi3
9D004170  AFA90040   SW T1, 64(SP)
9D004174  00409825   OR S3, V0, ZERO
9D004178  0060B025   OR S6, V1, ZERO
9D00417C  00009025   OR S2, ZERO, ZERO
9D004180  00006025   OR T4, ZERO, ZERO
9D004184  8FA90040   LW T1, 64(SP)
9D004188  8FAB0048   LW T3, 72(SP)
9D00418C  D7AC0090   LDC1 F12, 144(SP)
9D004190  D7AE0098   LDC1 F14, 152(SP)
9D004194  1000FF79   BEQ ZERO, ZERO, 0x9D003F7C
9D004198  8FAA0044   LW T2, 68(SP)
9D00419C  02088823   SUBU S1, S0, T0
9D0041A0  12200024   BEQ S1, ZERO, 0x9D004234
9D0041A4  02809025   OR S2, S4, ZERO
9D0041A8  2A220040   SLTI V0, S1, 64
9D0041AC  50400025   BEQL V0, ZERO, 0x9D004244
9D0041B0  24120001   ADDIU S2, ZERO, 1
9D0041B4  24060040   ADDIU A2, ZERO, 64
9D0041B8  02802025   OR A0, S4, ZERO
9D0041BC  01402825   OR A1, T2, ZERO
9D0041C0  00D13023   SUBU A2, A2, S1
9D0041C4  AFA90044   SW T1, 68(SP)
9D0041C8  AFAC0048   SW T4, 72(SP)
9D0041CC  F7AE0098   SDC1 F14, 152(SP)
9D0041D0  F7AC0090   SDC1 F12, 144(SP)
9D0041D4  0F404BB0   JAL __ashldi3
9D0041D8  AFAA0040   SW T2, 64(SP)
9D0041DC  8FAA0040   LW T2, 64(SP)
9D0041E0  00439025   OR S2, V0, V1
9D0041E4  02802025   OR A0, S4, ZERO
9D0041E8  01402825   OR A1, T2, ZERO
9D0041EC  0F404BA1   JAL __lshrdi3
9D0041F0  02203025   OR A2, S1, ZERO
9D0041F4  0012902B   SLTU S2, ZERO, S2
9D0041F8  02429025   OR S2, S2, V0
9D0041FC  00606025   OR T4, V1, ZERO
9D004200  0000A025   OR S4, ZERO, ZERO
9D004204  00005025   OR T2, ZERO, ZERO
9D004208  D7AC0090   LDC1 F12, 144(SP)
9D00420C  D7AE0098   LDC1 F14, 152(SP)
9D004210  8FAB0048   LW T3, 72(SP)
9D004214  1000FF59   BEQ ZERO, ZERO, 0x9D003F7C
9D004218  8FA90044   LW T1, 68(SP)
9D00421C  00004825   OR T1, ZERO, ZERO
9D004220  00009825   OR S3, ZERO, ZERO
9D004224  0000B025   OR S6, ZERO, ZERO
9D004228  00009025   OR S2, ZERO, ZERO
9D00422C  1000FF53   BEQ ZERO, ZERO, 0x9D003F7C
9D004230  00006025   OR T4, ZERO, ZERO
9D004234  01406025   OR T4, T2, ZERO
9D004238  0000A025   OR S4, ZERO, ZERO
9D00423C  1000FF4F   BEQ ZERO, ZERO, 0x9D003F7C
9D004240  00005025   OR T2, ZERO, ZERO
9D004244  1000FFFC   BEQ ZERO, ZERO, 0x9D004238
9D004248  00006025   OR T4, ZERO, ZERO
9D00424C  0168182B   SLTU V1, T3, T0
9D004250  012C2823   SUBU A1, T1, T4
9D004254  00A3B823   SUBU S7, A1, V1
9D004258  0137102B   SLTU V0, T1, S7
9D00425C  24040001   ADDIU A0, ZERO, 1
9D004260  14400007   BNE V0, ZERO, 0x9D004280
9D004264  00006825   OR T5, ZERO, ZERO
9D004268  56E90005   BNEL S7, T1, 0x9D004280
9D00426C  00002025   OR A0, ZERO, ZERO
9D004270  14600004   BNE V1, ZERO, 0x9D004284
9D004274  02742823   SUBU A1, S3, S4
9D004278  00002025   OR A0, ZERO, ZERO
9D00427C  00006825   OR T5, ZERO, ZERO
9D004280  02742823   SUBU A1, S3, S4
9D004284  0265F02B   SLTU FP, S3, A1
9D004288  02CA1823   SUBU V1, S6, T2
9D00428C  007E1823   SUBU V1, V1, FP
9D004290  00A4A823   SUBU S5, A1, A0
9D004294  00B5282B   SLTU A1, A1, S5
9D004298  006D1823   SUBU V1, V1, T5
9D00429C  0065F023   SUBU FP, V1, A1
9D0042A0  07C10014   BGEZ FP, 0x9D0042F4
9D0042A4  02BE1025   OR V0, S5, FP
9D0042A8  024B4023   SUBU T0, S2, T3
9D0042AC  0248302B   SLTU A2, S2, T0
9D0042B0  01892823   SUBU A1, T4, T1
9D0042B4  02933823   SUBU A3, S4, S3
9D0042B8  00A6B823   SUBU S7, A1, A2
9D0042BC  0287102B   SLTU V0, S4, A3
9D0042C0  01561823   SUBU V1, T2, S6
9D0042C4  0117A825   OR S5, T0, S7
9D0042C8  00E4F021   ADDU FP, A3, A0
9D0042CC  00621823   SUBU V1, V1, V0
9D0042D0  0015A82B   SLTU S5, ZERO, S5
9D0042D4  03C7382B   SLTU A3, FP, A3
9D0042D8  006D1821   ADDU V1, V1, T5
9D0042DC  03D5A823   SUBU S5, FP, S5
9D0042E0  00E31821   ADDU V1, A3, V1
9D0042E4  03D5F02B   SLTU FP, FP, S5
9D0042E8  007EF023   SUBU FP, V1, FP
9D0042EC  2E310001   SLTIU S1, S1, 1
9D0042F0  02BE1025   OR V0, S5, FP
9D0042F4  1440FF3C   BNE V0, ZERO, 0x9D003FE8
9D0042F8  02A02025   OR A0, S5, ZERO
9D0042FC  01171025   OR V0, T0, S7
9D004300  1040FECB   BEQ V0, ZERO, 0x9D003E30
9D004304  01002025   OR A0, T0, ZERO
9D004308  02E02825   OR A1, S7, ZERO
9D00430C  0F40479E   JAL a_clz_64
9D004310  AFA80040   SW T0, 64(SP)
9D004314  2452FFFF   ADDIU S2, V0, -1
9D004318  06410008   BGEZ S2, 0x9D00433C
9D00431C  8FA80040   LW T0, 64(SP)
9D004320  00081042   SRL V0, T0, 1
9D004324  00171FC0   SLL V1, S7, 31
9D004328  00621025   OR V0, V1, V0
9D00432C  31080001   ANDI T0, T0, 1
9D004330  00481025   OR V0, V0, T0
9D004334  1000FF47   BEQ ZERO, ZERO, 0x9D004054
9D004338  00179842   SRL S3, S7, 1
9D00433C  02403025   OR A2, S2, ZERO
9D004340  01002025   OR A0, T0, ZERO
9D004344  0F404BB0   JAL __ashldi3
9D004348  02E02825   OR A1, S7, ZERO
9D00434C  1000FF41   BEQ ZERO, ZERO, 0x9D004054
9D004350  00609825   OR S3, V1, ZERO
9D004354  1000FF54   BEQ ZERO, ZERO, 0x9D0040A8
9D004358  D4623888   LDC1 F2, 14472(V1)
9D00435C  10600019   BEQ V1, ZERO, 0x9D0043C4
9D004360  00022042   SRL A0, V0, 1
9D004364  00131FC0   SLL V1, S3, 31
9D004368  30420001   ANDI V0, V0, 1
9D00436C  00642025   OR A0, V1, A0
9D004370  0013B842   SRL S7, S3, 1
9D004374  00824025   OR T0, A0, V0
9D004378  3C024000   LUI V0, 16384
9D00437C  12200006   BEQ S1, ZERO, 0x9D004398
9D004380  00574825   OR T1, V0, S7
9D004384  00081023   SUBU V0, ZERO, T0
9D004388  0002182B   SLTU V1, ZERO, V0
9D00438C  00092023   SUBU A0, ZERO, T1
9D004390  00404025   OR T0, V0, ZERO
9D004394  00834823   SUBU T1, A0, V1
9D004398  44880000   MTC1 T0, F0
9D00439C  3C029D01   LUI V0, -25343
9D0043A0  44E90000   MTHC1 T1, F0
9D0043A4  D44C38A0   LDC1 F12, 14496(V0)
9D0043A8  46A00021   CVT.D.L F0, F0
9D0043AC  46200000   ADD.D F0, F0, F0
9D0043B0  46220001   SUB.D F0, F0, F2
9D0043B4  462C0302   MUL.D F12, F0, F12
9D0043B8  46200081   SUB.D F2, F0, F0
9D0043BC  462C6302   MUL.D F12, F12, F12
9D0043C0  4C026321   MADD.D F12, F0, F12, F2
9D0043C4  0F40461E   JAL scalbn
9D0043C8  00000000   NOP
9D0043CC  1000FE9F   BEQ ZERO, ZERO, 0x9D003E4C
9D0043D0  46200506   MOV.D F20, F0
9D0043D4  00022580   SLL A0, V0, 22
9D0043D8  00021282   SRL V0, V0, 10
9D0043DC  0004202B   SLTU A0, ZERO, A0
9D0043E0  00E21025   OR V0, A3, V0
9D0043E4  00821025   OR V0, A0, V0
9D0043E8  00023D82   SRL A3, V0, 22
9D0043EC  7C134804   INS S3, ZERO, 0, 10
9D0043F0  00F32825   OR A1, A3, S3
9D0043F4  12200006   BEQ S1, ZERO, 0x9D004410
9D0043F8  00022280   SLL A0, V0, 10
9D0043FC  00041023   SUBU V0, ZERO, A0
9D004400  0002182B   SLTU V1, ZERO, V0
9D004404  00053823   SUBU A3, ZERO, A1
9D004408  00402025   OR A0, V0, ZERO
9D00440C  00E32823   SUBU A1, A3, V1
9D004410  44840000   MTC1 A0, F0
9D004414  44E50000   MTHC1 A1, F0
9D004418  1000FFEA   BEQ ZERO, ZERO, 0x9D0043C4
9D00441C  46A00321   CVT.D.L F12, F0
9D0117EC  AFA7000C   SW A3, 12(SP)
9D0117F0  8FA3000C   LW V1, 12(SP)
9D0117F4  AFA60008   SW A2, 8(SP)
9D0117F8  00801025   OR V0, A0, ZERO
9D0117FC  00032D02   SRL A1, V1, 20
9D011800  30A80800   ANDI T0, A1, 2048
9D011804  30A507FF   ANDI A1, A1, 2047
9D011808  14A0000E   BNE A1, ZERO, normalize
9D01180C  8FA40008   LW A0, 8(SP)
9D011810  3C039D01   LUI V1, -25343
9D011814  44860800   MTC1 A2, F1
9D011818  D4603888   LDC1 F0, 14472(V1)
9D01181C  44E70800   MTHC1 A3, F1
9D011820  24050800   ADDIU A1, ZERO, 2048
9D011824  46200802   MUL.D F0, F1, F0
9D011828  44060000   MFC1 A2, F0
9D01182C  44670000   MFHC1 A3, F0
9D011830  00C02025   OR A0, A2, ZERO
9D011834  7CE65500   EXT A2, A3, 20, 11
9D011838  10C00002   BEQ A2, ZERO, normalize
9D01183C  00E01825   OR V1, A3, ZERO
9D011840  24C5FFC1   ADDIU A1, A2, -63
9D011844  000437C2   SRL A2, A0, 31
9D011848  00031840   SLL V1, V1, 1
9D01184C  00C31825   OR V1, A2, V1
9D011850  00042040   SLL A0, A0, 1
9D011854  AC440000   SW A0, 0(V0)
9D011858  7C63A000   EXT V1, V1, 0, 21
9D01185C  3C040020   LUI A0, 32
9D011860  00831825   OR V1, A0, V1
9D011864  24A5FBCC   ADDIU A1, A1, -1076
9D011868  AC430004   SW V1, 4(V0)
9D01186C  AC450008   SW A1, 8(V0)
9D011870  03E00008   JR RA
9D011874  AC48000C   SW T0, 12(V0)
---  /data01/build/bamboo/xml-data/build-dir/M32DEV-GMB34-JOB1/src/xc32-musl-stdlib/musl/musl-1.1.18/src/math/floor.c
-----*  Optimizer-Generated Procedural Abstractions  *----------------------------------------------
9D0109BC  27BDFFF8   ADDIU SP, SP, -8
9D0109C0  F7AC0008   SDC1 F12, 8(SP)
9D0109C4  8FA3000C   LW V1, 12(SP)
9D0109C8  7C625500   EXT V0, V1, 20, 11
9D0109CC  28440433   SLTI A0, V0, 1075
9D0109D0  10800015   BEQ A0, ZERO, 0x9D010A28
9D0109D4  D7A00008   LDC1 F0, 8(SP)
9D0109D8  44801000   MTC1 ZERO, F2
9D0109DC  44E01000   MTHC1 ZERO, F2
9D0109E0  46226032   C.EQ.D F12, F2
9D0109E4  45010010   BC1T 0x9D010A28
9D0109E8  00000000   NOP
9D0109EC  3C049D01   LUI A0, -25343
9D0109F0  0461000F   BGEZ V1, 0x9D010A30
9D0109F4  D4843AF8   LDC1 F4, 15096(A0)
9D0109F8  46246001   SUB.D F0, F12, F4
9D0109FC  46240000   ADD.D F0, F0, F4
9D010A00  462C0001   SUB.D F0, F0, F12
9D010A04  284203FF   SLTI V0, V0, 1023
9D010A08  1040000E   BEQ V0, ZERO, 0x9D010A44
9D010A0C  D7A10008   LDC1 F1, 8(SP)
9D010A10  F7A00000   SDC1 F0, 0(SP)
9D010A14  04600014   BLTZ V1, 0x9D010A68
9D010A18  3C029D01   LUI V0, -25343
9D010A1C  AFA00008   SW ZERO, 8(SP)
9D010A20  AFA0000C   SW ZERO, 12(SP)
9D010A24  D7A00008   LDC1 F0, 8(SP)
9D010A28  03E00008   JR RA
9D010A2C  27BD0008   ADDIU SP, SP, 8
9D010A30  D7A10008   LDC1 F1, 8(SP)
9D010A34  46240000   ADD.D F0, F0, F4
9D010A38  46240001   SUB.D F0, F0, F4
9D010A3C  1000FFF1   BEQ ZERO, ZERO, 0x9D010A04
9D010A40  46210001   SUB.D F0, F0, F1
9D010A44  4620113C   C.LT.D 1, F2, F0
9D010A48  46200840   ADD.D F1, F1, F0
9D010A4C  4504FFF5   BC1F 1, 0x9D010A24
9D010A50  F7A10008   SDC1 F1, 8(SP)
9D010A54  3C029D01   LUI V0, -25343
9D010A58  D4403B00   LDC1 F0, 15104(V0)
9D010A5C  46200801   SUB.D F0, F1, F0
9D010A60  1000FFF0   BEQ ZERO, ZERO, 0x9D010A24
9D010A64  F7A00008   SDC1 F0, 8(SP)
9D010A68  1000FFFD   BEQ ZERO, ZERO, 0x9D010A60
9D010A6C  D4403AF0   LDC1 F0, 15088(V0)
---  /data01/build/bamboo/xml-data/build-dir/M32DEV-GMB34-JOB1/src/xc32-musl-stdlib/musl/musl-1.1.18/src/math/cos.c
-----*  Optimizer-Generated Procedural Abstractions  *----------------------------------------------
9D00F518  27BDFFC8   ADDIU SP, SP, -56
9D00F51C  F7AC0038   SDC1 F12, 56(SP)
9D00F520  8FA2003C   LW V0, 60(SP)
9D00F524  3C033FE9   LUI V1, 16361
9D00F528  246321FC   ADDIU V1, V1, 8700
9D00F52C  7C42F000   EXT V0, V0, 0, 31
9D00F530  0043182B   SLTU V1, V0, V1
9D00F534  10600013   BEQ V1, ZERO, 0x9D00F584
9D00F538  AFBF0034   SW RA, 52(SP)
9D00F53C  3C033E46   LUI V1, 15942
9D00F540  3463A09E   ORI V1, V1, -24418
9D00F544  0043102B   SLTU V0, V0, V1
9D00F548  10400008   BEQ V0, ZERO, 0x9D00F56C
9D00F54C  3C029D01   LUI V0, -25343
9D00F550  D4403D30   LDC1 F0, 15664(V0)
9D00F554  3C029D01   LUI V0, -25343
9D00F558  46206000   ADD.D F0, F12, F0
9D00F55C  F7A00018   SDC1 F0, 24(SP)
9D00F560  D4403D28   LDC1 F0, 15656(V0)
9D00F564  10000024   BEQ ZERO, ZERO, 0x9D00F5F8
9D00F568  F7A00028   SDC1 F0, 40(SP)
9D00F56C  44807000   MTC1 ZERO, F14
9D00F570  44E07000   MTHC1 ZERO, F14
9D00F574  0F404663   JAL __cos
9D00F578  00000000   NOP
9D00F57C  1000001E   BEQ ZERO, ZERO, 0x9D00F5F8
9D00F580  F7A00028   SDC1 F0, 40(SP)
9D00F584  3C037FF0   LUI V1, 32752
9D00F588  0043102B   SLTU V0, V0, V1
9D00F58C  14400003   BNE V0, ZERO, 0x9D00F59C
9D00F590  D7A00038   LDC1 F0, 56(SP)
9D00F594  1000FFF3   BEQ ZERO, ZERO, 0x9D00F564
9D00F598  46200001   SUB.D F0, F0, F0
9D00F59C  0F4018FA   JAL __rem_pio2
9D00F5A0  27A60018   ADDIU A2, SP, 24
9D00F5A4  30420003   ANDI V0, V0, 3
9D00F5A8  24030001   ADDIU V1, ZERO, 1
9D00F5AC  D7AE0020   LDC1 F14, 32(SP)
9D00F5B0  10430009   BEQ V0, V1, 0x9D00F5D8
9D00F5B4  D7AC0018   LDC1 F12, 24(SP)
9D00F5B8  1040FFEE   BEQ V0, ZERO, 0x9D00F574
9D00F5BC  24040002   ADDIU A0, ZERO, 2
9D00F5C0  10440011   BEQ V0, A0, 0x9D00F608
9D00F5C4  00000000   NOP
9D00F5C8  0F40456E   JAL __sin
9D00F5CC  AFA30010   SW V1, 16(SP)
9D00F5D0  10000009   BEQ ZERO, ZERO, 0x9D00F5F8
9D00F5D4  F7A00028   SDC1 F0, 40(SP)
9D00F5D8  0F40456E   JAL __sin
9D00F5DC  AFA20010   SW V0, 16(SP)
9D00F5E0  44650000   MFHC1 A1, F0
9D00F5E4  44040000   MFC1 A0, F0
9D00F5E8  3C028000   LUI V0, -32768
9D00F5EC  00451026   XOR V0, V0, A1
9D00F5F0  AFA40028   SW A0, 40(SP)
9D00F5F4  AFA2002C   SW V0, 44(SP)
9D00F5F8  8FBF0034   LW RA, 52(SP)
9D00F5FC  D7A00028   LDC1 F0, 40(SP)
9D00F600  03E00008   JR RA
9D00F604  27BD0038   ADDIU SP, SP, 56
9D00F608  0F404663   JAL __cos
9D00F60C  00000000   NOP
9D00F610  1000FFF4   BEQ ZERO, ZERO, 0x9D00F5E4
9D00F614  44650000   MFHC1 A1, F0
---  /data01/build/bamboo/xml-data/build-dir/M32DEV-GMB34-JOB1/src/xc32-musl-stdlib/musl/musl-1.1.18/src/math/__sin.c
-----*  Optimizer-Generated Procedural Abstractions  *----------------------------------------------
9D0115B8  462C6182   MUL.D F6, F12, F12
9D0115BC  3C039D01   LUI V1, -25343
9D0115C0  D46A2D18   LDC1 F10, 11544(V1)
9D0115C4  3C039D01   LUI V1, -25343
9D0115C8  D4622D20   LDC1 F2, 11552(V1)
9D0115CC  3C039D01   LUI V1, -25343
9D0115D0  D4682D28   LDC1 F8, 11560(V1)
9D0115D4  3C039D01   LUI V1, -25343
9D0115D8  4C4A32A9   MSUB.D F10, F2, F6, F10
9D0115DC  D4622D30   LDC1 F2, 11568(V1)
9D0115E0  46263102   MUL.D F4, F6, F6
9D0115E4  3C039D01   LUI V1, -25343
9D0115E8  4C483229   MSUB.D F8, F2, F6, F8
9D0115EC  D4622D38   LDC1 F2, 11576(V1)
9D0115F0  8FA20010   LW V0, 16(SP)
9D0115F4  46266002   MUL.D F0, F12, F6
9D0115F8  46262102   MUL.D F4, F4, F6
9D0115FC  4C4640A1   MADD.D F2, F2, F8, F6
9D011600  14400006   BNE V0, ZERO, 0x9D01161C
9D011604  4C4A20A1   MADD.D F2, F2, F4, F10
9D011608  3C029D01   LUI V0, -25343
9D01160C  D44E2D40   LDC1 F14, 11584(V0)
9D011610  4DC230A9   MSUB.D F2, F14, F6, F2
9D011614  03E00008   JR RA
9D011618  4D801021   MADD.D F0, F12, F2, F0
9D01161C  46201082   MUL.D F2, F2, F0
9D011620  3C029D01   LUI V0, -25343
9D011624  D4442D48   LDC1 F4, 11592(V0)
9D011628  3C029D01   LUI V0, -25343
9D01162C  4C4470A9   MSUB.D F2, F2, F14, F4
9D011630  4DC610A9   MSUB.D F2, F14, F2, F6
9D011634  D4462D50   LDC1 F6, 11600(V0)
9D011638  46260002   MUL.D F0, F0, F6
9D01163C  46201001   SUB.D F0, F2, F0
9D011640  03E00008   JR RA
9D011644  46206001   SUB.D F0, F12, F0
---  /data01/build/bamboo/xml-data/build-dir/M32DEV-GMB34-JOB1/src/xc32-musl-stdlib/musl/musl-1.1.18/src/math/__rem_pio2_large.c
-----*  Optimizer-Generated Procedural Abstractions  *----------------------------------------------
9D0020F8  27BDFD50   ADDIU SP, SP, -688
9D0020FC  AFB20260   SW S2, 608(SP)
9D002100  8FB202C0   LW S2, 704(SP)
9D002104  3C039D01   LUI V1, -25343
9D002108  2463D840   ADDIU V1, V1, -10176
9D00210C  00121080   SLL V0, S2, 2
9D002110  00431021   ADDU V0, V0, V1
9D002114  AFB1025C   SW S1, 604(SP)
9D002118  8C510000   LW S1, 0(V0)
9D00211C  28C2FFEC   SLTI V0, A2, -20
9D002120  AFB5026C   SW S5, 620(SP)
9D002124  AFB40268   SW S4, 616(SP)
9D002128  AFBF027C   SW RA, 636(SP)
9D00212C  AFBE0278   SW FP, 632(SP)
9D002130  AFB70274   SW S7, 628(SP)
9D002134  AFB60270   SW S6, 624(SP)
9D002138  AFB30264   SW S3, 612(SP)
9D00213C  AFB00258   SW S0, 600(SP)
9D002140  F7BC02A0   SDC1 F28, 672(SP)
9D002144  F7BA0298   SDC1 F26, 664(SP)
9D002148  F7B80290   SDC1 F24, 656(SP)
9D00214C  F7B60288   SDC1 F22, 648(SP)
9D002150  F7B40280   SDC1 F20, 640(SP)
9D002154  AFA402B0   SW A0, 688(SP)
9D002158  00A0A825   OR S5, A1, ZERO
9D00215C  24E9FFFF   ADDIU T1, A3, -1
9D002160  14400006   BNE V0, ZERO, 0x9D00217C
9D002164  0000A025   OR S4, ZERO, ZERO
9D002168  24C4FFFD   ADDIU A0, A2, -3
9D00216C  24020018   ADDIU V0, ZERO, 24
9D002170  0082001A   DIV A0, V0
9D002174  004001F4   TEQ V0, ZERO
9D002178  0000A012   MFLO S4
9D00217C  26970001   ADDIU S7, S4, 1
9D002180  2402FFE8   ADDIU V0, ZERO, -24
9D002184  72E21802   MUL V1, S7, V0
9D002188  02895023   SUBU T2, S4, T1
9D00218C  3C089D01   LUI T0, -25343
9D002190  02295821   ADDU T3, S1, T1
9D002194  01401025   OR V0, T2, ZERO
9D002198  2508D738   ADDIU T0, T0, -10440
9D00219C  0066B821   ADDU S7, V1, A2
9D0021A0  27A30150   ADDIU V1, SP, 336
9D0021A4  004A3023   SUBU A2, V0, T2
9D0021A8  0166302A   SLT A2, T3, A2
9D0021AC  50C00087   BEQL A2, ZERO, 0x9D0023CC
9D0021B0  44800000   MTC1 ZERO, F0
9D0021B4  27A30150   ADDIU V1, SP, 336
9D0021B8  000710C0   SLL V0, A3, 3
9D0021BC  00621021   ADDU V0, V1, V0
9D0021C0  27AB0010   ADDIU T3, SP, 16
9D0021C4  00001825   OR V1, ZERO, ZERO
9D0021C8  0223302A   SLT A2, S1, V1
9D0021CC  50C00098   BEQL A2, ZERO, 0x9D002430
9D0021D0  44800000   MTC1 ZERO, F0
9D0021D4  00111080   SLL V0, S1, 2
9D0021D8  27A301F0   ADDIU V1, SP, 496
9D0021DC  00621021   ADDU V0, V1, V0
9D0021E0  AFA20240   SW V0, 576(SP)
9D0021E4  3C029D01   LUI V0, -25343
9D0021E8  D45432F0   LDC1 F20, 13040(V0)
9D0021EC  3C029D01   LUI V0, -25343
9D0021F0  D45632F8   LDC1 F22, 13048(V0)
9D0021F4  3C029D01   LUI V0, -25343
9D0021F8  D45A3300   LDC1 F26, 13056(V0)
9D0021FC  3C029D01   LUI V0, -25343
9D002200  D4583308   LDC1 F24, 13064(V0)
9D002204  3C029D01   LUI V0, -25343
9D002208  0220F025   OR FP, S1, ZERO
9D00220C  AFA20248   SW V0, 584(SP)
9D002210  001E18C0   SLL V1, FP, 3
9D002214  27B30010   ADDIU S3, SP, 16
9D002218  4C730301   LDXC1 F12, 19(V1)
9D00221C  27A801F0   ADDIU T0, SP, 496
9D002220  01005025   OR T2, T0, ZERO
9D002224  03C03025   OR A2, FP, ZERO
9D002228  5CC00085   BGTZL A2, 0x9D002440
9D00222C  46346002   MUL.D F0, F12, F20
9D002230  02E03025   OR A2, S7, ZERO
9D002234  AFA702BC   SW A3, 700(SP)
9D002238  AFA80254   SW T0, 596(SP)
9D00223C  0F40461E   JAL scalbn
9D002240  AFA90250   SW T1, 592(SP)
9D002244  463A0302   MUL.D F12, F0, F26
9D002248  0F40426F   JAL floor
9D00224C  46200706   MOV.D F28, F0
9D002250  46380002   MUL.D F0, F0, F24
9D002254  8FA90250   LW T1, 592(SP)
9D002258  8FA80254   LW T0, 596(SP)
9D00225C  8FA702BC   LW A3, 700(SP)
9D002260  4620E701   SUB.D F28, F28, F0
9D002264  4620E00D   TRUNC.W.D F0, F28
9D002268  44100000   MFC1 S0, F0
9D00226C  46800021   CVT.D.W F0, F0
9D002270  1AE0007F   BLEZ S7, 0x9D002470
9D002274  4620E701   SUB.D F28, F28, F0
9D002278  27C3FFFF   ADDIU V1, FP, -1
9D00227C  00031880   SLL V1, V1, 2
9D002280  02631821   ADDU V1, S3, V1
9D002284  8C6A01E0   LW T2, 480(V1)
9D002288  24160018   ADDIU S6, ZERO, 24
9D00228C  02D7B023   SUBU S6, S6, S7
9D002290  02CA3007   SRAV A2, T2, S6
9D002294  02C6B004   SLLV S6, A2, S6
9D002298  0156B023   SUBU S6, T2, S6
9D00229C  AC7601E0   SW S6, 480(V1)
9D0022A0  24030017   ADDIU V1, ZERO, 23
9D0022A4  00771823   SUBU V1, V1, S7
9D0022A8  02068021   ADDU S0, S0, A2
9D0022AC  0076B007   SRAV S6, S6, V1
9D0022B0  5AC0001F   BLEZL S6, 0x9D002330
9D0022B4  44800000   MTC1 ZERO, F0
9D0022B8  3C0B00FF   LUI T3, 255
9D0022BC  26100001   ADDIU S0, S0, 1
9D0022C0  00005025   OR T2, ZERO, ZERO
9D0022C4  00003025   OR A2, ZERO, ZERO
9D0022C8  356BFFFF   ORI T3, T3, -1
9D0022CC  3C0C0100   LUI T4, 256
9D0022D0  015E182A   SLT V1, T2, FP
9D0022D4  14600074   BNE V1, ZERO, 0x9D0024A8
9D0022D8  00000000   NOP
9D0022DC  1AE00005   BLEZ S7, 0x9D0022F4
9D0022E0  24030001   ADDIU V1, ZERO, 1
9D0022E4  12E3007F   BEQ S7, V1, 0x9D0024E4
9D0022E8  24030002   ADDIU V1, ZERO, 2
9D0022EC  12E30084   BEQ S7, V1, 0x9D002500
9D0022F0  27C3FFFF   ADDIU V1, FP, -1
9D0022F4  24030002   ADDIU V1, ZERO, 2
9D0022F8  56C3000D   BNEL S6, V1, 0x9D002330
9D0022FC  44800000   MTC1 ZERO, F0
9D002300  8FA20248   LW V0, 584(SP)
9D002304  D44C3318   LDC1 F12, 13080(V0)
9D002308  10C00008   BEQ A2, ZERO, 0x9D00232C
9D00230C  463C6701   SUB.D F28, F12, F28
9D002310  02E03025   OR A2, S7, ZERO
9D002314  AFA702BC   SW A3, 700(SP)
9D002318  0F40461E   JAL scalbn
9D00231C  AFA90250   SW T1, 592(SP)
9D002320  4620E701   SUB.D F28, F28, F0
9D002324  8FA702BC   LW A3, 700(SP)
9D002328  8FA90250   LW T1, 592(SP)
9D00232C  44800000   MTC1 ZERO, F0
9D002330  44E00000   MTHC1 ZERO, F0
9D002334  4620E132   C.EQ.D 1, F28, F0
9D002338  450400A8   BC1F 1, 0x9D0025DC
9D00233C  00004025   OR T0, ZERO, ZERO
9D002340  27C3FFFF   ADDIU V1, FP, -1
9D002344  00603025   OR A2, V1, ZERO
9D002348  00D1502A   SLT T2, A2, S1
9D00234C  51400071   BEQL T2, ZERO, 0x9D002514
9D002350  00065080   SLL T2, A2, 2
9D002354  51000096   BEQL T0, ZERO, 0x9D0025B0
9D002358  8FA30240   LW V1, 576(SP)
9D00235C  00032080   SLL A0, V1, 2
9D002360  27A201F0   ADDIU V0, SP, 496
9D002364  00442021   ADDU A0, V0, A0
9D002368  8C840000   LW A0, 0(A0)
9D00236C  10800099   BEQ A0, ZERO, 0x9D0025D4
9D002370  26F7FFE8   ADDIU S7, S7, -24
9D002374  3C049D01   LUI A0, -25343
9D002378  D48C3318   LDC1 F12, 13080(A0)
9D00237C  02E03025   OR A2, S7, ZERO
9D002380  0F40461E   JAL scalbn
9D002384  AFA30240   SW V1, 576(SP)
9D002388  8FA30240   LW V1, 576(SP)
9D00238C  3C069D01   LUI A2, -25343
9D002390  D4C432F0   LDC1 F4, 13040(A2)
9D002394  00602025   OR A0, V1, ZERO
9D002398  048100AD   BGEZ A0, 0x9D002650
9D00239C  00043080   SLL A2, A0, 2
9D0023A0  3C099D01   LUI T1, -25343
9D0023A4  00603825   OR A3, V1, ZERO
9D0023A8  00004025   OR T0, ZERO, ZERO
9D0023AC  2529D6F8   ADDIU T1, T1, -10504
9D0023B0  04E000C2   BLTZ A3, 0x9D0026BC
9D0023B4  000730C0   SLL A2, A3, 3
9D0023B8  44800000   MTC1 ZERO, F0
9D0023BC  02663021   ADDU A2, S3, A2
9D0023C0  44E00000   MTHC1 ZERO, F0
9D0023C4  100000B2   BEQ ZERO, ZERO, 0x9D002690
9D0023C8  00002025   OR A0, ZERO, ZERO
9D0023CC  04400006   BLTZ V0, 0x9D0023E8
9D0023D0  44E00000   MTHC1 ZERO, F0
9D0023D4  00023080   SLL A2, V0, 2
9D0023D8  01063021   ADDU A2, T0, A2
9D0023DC  8CC60000   LW A2, 0(A2)
9D0023E0  44860000   MTC1 A2, F0
9D0023E4  46800021   CVT.D.W F0, F0
9D0023E8  F4600000   SDC1 F0, 0(V1)
9D0023EC  24420001   ADDIU V0, V0, 1
9D0023F0  1000FF6C   BEQ ZERO, ZERO, 0x9D0021A4
9D0023F4  24630008   ADDIU V1, V1, 8
9D0023F8  8FA402B0   LW A0, 688(SP)
9D0023FC  000650C0   SLL T2, A2, 3
9D002400  D5010000   LDC1 F1, 0(T0)
9D002404  4D440081   LDXC1 F2, 4(T2)
9D002408  24C60001   ADDIU A2, A2, 1
9D00240C  4C011021   MADD.D F0, F0, F2, F1
9D002410  0126502A   SLT T2, T1, A2
9D002414  1140FFF8   BEQ T2, ZERO, 0x9D0023F8
9D002418  2508FFF8   ADDIU T0, T0, -8
9D00241C  000330C0   SLL A2, V1, 3
9D002420  4CCB0009   SDXC1 F0, 11(A2)
9D002424  24630001   ADDIU V1, V1, 1
9D002428  1000FF67   BEQ ZERO, ZERO, 0x9D0021C8
9D00242C  24420008   ADDIU V0, V0, 8
9D002430  00404025   OR T0, V0, ZERO
9D002434  44E00000   MTHC1 ZERO, F0
9D002438  1000FFF5   BEQ ZERO, ZERO, 0x9D002410
9D00243C  00003025   OR A2, ZERO, ZERO
9D002440  24C6FFFF   ADDIU A2, A2, -1
9D002444  000618C0   SLL V1, A2, 3
9D002448  254A0004   ADDIU T2, T2, 4
9D00244C  4620000D   TRUNC.W.D F0, F0
9D002450  46800021   CVT.D.W F0, F0
9D002454  46360082   MUL.D F2, F0, F22
9D002458  46226301   SUB.D F12, F12, F2
9D00245C  4620604D   TRUNC.W.D F1, F12
9D002460  4C730301   LDXC1 F12, 19(V1)
9D002464  E541FFFC   SWC1 F1, -4(T2)
9D002468  1000FF6F   BEQ ZERO, ZERO, 0x9D002228
9D00246C  462C0300   ADD.D F12, F0, F12
9D002470  16E00007   BNE S7, ZERO, 0x9D002490
9D002474  3C039D01   LUI V1, -25343
9D002478  27C3FFFF   ADDIU V1, FP, -1
9D00247C  00031880   SLL V1, V1, 2
9D002480  02631821   ADDU V1, S3, V1
9D002484  8C7601E0   LW S6, 480(V1)
9D002488  1000FF89   BEQ ZERO, ZERO, 0x9D0022B0
9D00248C  0016B5C3   SRA S6, S6, 23
9D002490  D4603310   LDC1 F0, 13072(V1)
9D002494  463C003E   C.LE.D F0, F28
9D002498  4500FFA4   BC1F 0x9D00232C
9D00249C  0000B025   OR S6, ZERO, ZERO
9D0024A0  1000FF85   BEQ ZERO, ZERO, 0x9D0022B8
9D0024A4  24160002   ADDIU S6, ZERO, 2
9D0024A8  14C0000A   BNE A2, ZERO, 0x9D0024D4
9D0024AC  8D030000   LW V1, 0(T0)
9D0024B0  50600005   BEQL V1, ZERO, 0x9D0024C8
9D0024B4  254A0001   ADDIU T2, T2, 1
9D0024B8  01831823   SUBU V1, T4, V1
9D0024BC  AD030000   SW V1, 0(T0)
9D0024C0  24030001   ADDIU V1, ZERO, 1
9D0024C4  254A0001   ADDIU T2, T2, 1
9D0024C8  25080004   ADDIU T0, T0, 4
9D0024CC  1000FF80   BEQ ZERO, ZERO, 0x9D0022D0
9D0024D0  00603025   OR A2, V1, ZERO
9D0024D4  01631823   SUBU V1, T3, V1
9D0024D8  AD030000   SW V1, 0(T0)
9D0024DC  1000FFF9   BEQ ZERO, ZERO, 0x9D0024C4
9D0024E0  00C01825   OR V1, A2, ZERO
9D0024E4  27C3FFFF   ADDIU V1, FP, -1
9D0024E8  00031880   SLL V1, V1, 2
9D0024EC  02631821   ADDU V1, S3, V1
9D0024F0  8C6801E0   LW T0, 480(V1)
9D0024F4  7D08B000   EXT T0, T0, 0, 23
9D0024F8  1000FF7E   BEQ ZERO, ZERO, 0x9D0022F4
9D0024FC  AC6801E0   SW T0, 480(V1)
9D002500  00031880   SLL V1, V1, 2
9D002504  02631821   ADDU V1, S3, V1
9D002508  8C6801E0   LW T0, 480(V1)
9D00250C  1000FFFA   BEQ ZERO, ZERO, 0x9D0024F8
9D002510  7D08A800   EXT T0, T0, 0, 22
9D002514  27A201F0   ADDIU V0, SP, 496
9D002518  004A5021   ADDU T2, V0, T2
9D00251C  8D4A0000   LW T2, 0(T2)
9D002520  24C6FFFF   ADDIU A2, A2, -1
9D002524  1000FF88   BEQ ZERO, ZERO, 0x9D002348
9D002528  010A4025   OR T0, T0, T2
9D00252C  2463FFFC   ADDIU V1, V1, -4
9D002530  8C660000   LW A2, 0(V1)
9D002534  50C0FFFD   BEQL A2, ZERO, 0x9D00252C
9D002538  25080001   ADDIU T0, T0, 1
9D00253C  03C71821   ADDU V1, FP, A3
9D002540  000318C0   SLL V1, V1, 3
9D002544  27A20150   ADDIU V0, SP, 336
9D002548  3C0A9D01   LUI T2, -25343
9D00254C  27C60001   ADDIU A2, FP, 1
9D002550  00431821   ADDU V1, V0, V1
9D002554  03C8F021   ADDU FP, FP, T0
9D002558  254AD738   ADDIU T2, T2, -10440
9D00255C  03C6402A   SLT T0, FP, A2
9D002560  1500FF2B   BNE T0, ZERO, 0x9D002210
9D002564  02864021   ADDU T0, S4, A2
9D002568  00084080   SLL T0, T0, 2
9D00256C  01484021   ADDU T0, T2, T0
9D002570  8D080000   LW T0, 0(T0)
9D002574  00605825   OR T3, V1, ZERO
9D002578  44880000   MTC1 T0, F0
9D00257C  00004025   OR T0, ZERO, ZERO
9D002580  46800021   CVT.D.W F0, F0
9D002584  F4600000   SDC1 F0, 0(V1)
9D002588  44800000   MTC1 ZERO, F0
9D00258C  44E00000   MTHC1 ZERO, F0
9D002590  0128602A   SLT T4, T1, T0
9D002594  11800008   BEQ T4, ZERO, 0x9D0025B8
9D002598  8FA202B0   LW V0, 688(SP)
9D00259C  000640C0   SLL T0, A2, 3
9D0025A0  4D130009   SDXC1 F0, 19(T0)
9D0025A4  24C60001   ADDIU A2, A2, 1
9D0025A8  1000FFEC   BEQ ZERO, ZERO, 0x9D00255C
9D0025AC  24630008   ADDIU V1, V1, 8
9D0025B0  1000FFDE   BEQ ZERO, ZERO, 0x9D00252C
9D0025B4  24080001   ADDIU T0, ZERO, 1
9D0025B8  000860C0   SLL T4, T0, 3
9D0025BC  D5610000   LDC1 F1, 0(T3)
9D0025C0  4D820081   LDXC1 F2, 2(T4)
9D0025C4  25080001   ADDIU T0, T0, 1
9D0025C8  256BFFF8   ADDIU T3, T3, -8
9D0025CC  1000FFF0   BEQ ZERO, ZERO, 0x9D002590
9D0025D0  4C011021   MADD.D F0, F0, F2, F1
9D0025D4  1000FF61   BEQ ZERO, ZERO, 0x9D00235C
9D0025D8  2463FFFF   ADDIU V1, V1, -1
9D0025DC  4620E306   MOV.D F12, F28
9D0025E0  0F40461E   JAL scalbn
9D0025E4  00173023   SUBU A2, ZERO, S7
9D0025E8  3C039D01   LUI V1, -25343
9D0025EC  D46432F8   LDC1 F4, 13048(V1)
9D0025F0  4620223E   C.LE.D 2, F4, F0
9D0025F4  45080011   BC1F 2, 0x9D00263C
9D0025F8  001E1880   SLL V1, FP, 2
9D0025FC  3C049D01   LUI A0, -25343
9D002600  D48232F0   LDC1 F2, 13040(A0)
9D002604  02632021   ADDU A0, S3, V1
9D002608  27C30001   ADDIU V1, FP, 1
9D00260C  46220082   MUL.D F2, F0, F2
9D002610  26F70018   ADDIU S7, S7, 24
9D002614  4620104D   TRUNC.W.D F1, F2
9D002618  468008A1   CVT.D.W F2, F1
9D00261C  46241082   MUL.D F2, F2, F4
9D002620  46220001   SUB.D F0, F0, F2
9D002624  4620000D   TRUNC.W.D F0, F0
9D002628  E48001E0   SWC1 F0, 480(A0)
9D00262C  00032080   SLL A0, V1, 2
9D002630  02642021   ADDU A0, S3, A0
9D002634  1000FF4F   BEQ ZERO, ZERO, 0x9D002374
9D002638  E48101E0   SWC1 F1, 480(A0)
9D00263C  02632021   ADDU A0, S3, V1
9D002640  4620000D   TRUNC.W.D F0, F0
9D002644  E48001E0   SWC1 F0, 480(A0)
9D002648  1000FF4A   BEQ ZERO, ZERO, 0x9D002374
9D00264C  03C01825   OR V1, FP, ZERO
9D002650  27A201F0   ADDIU V0, SP, 496
9D002654  00463021   ADDU A2, V0, A2
9D002658  8CC60000   LW A2, 0(A2)
9D00265C  000438C0   SLL A3, A0, 3
9D002660  2484FFFF   ADDIU A0, A0, -1
9D002664  44860800   MTC1 A2, F1
9D002668  468008A1   CVT.D.W F2, F1
9D00266C  46201082   MUL.D F2, F2, F0
9D002670  46240002   MUL.D F0, F0, F4
9D002674  1000FF48   BEQ ZERO, ZERO, 0x9D002398
9D002678  4CF31009   SDXC1 F2, 19(A3)
9D00267C  D4C10000   LDC1 F1, 0(A2)
9D002680  4D490081   LDXC1 F2, 9(T2)
9D002684  24840001   ADDIU A0, A0, 1
9D002688  24C60008   ADDIU A2, A2, 8
9D00268C  4C011021   MADD.D F0, F0, F2, F1
9D002690  0224502A   SLT T2, S1, A0
9D002694  15400003   BNE T2, ZERO, 0x9D0026A4
9D002698  0104502A   SLT T2, T0, A0
9D00269C  1140FFF7   BEQ T2, ZERO, 0x9D00267C
9D0026A0  000450C0   SLL T2, A0, 3
9D0026A4  000820C0   SLL A0, T0, 3
9D0026A8  02642021   ADDU A0, S3, A0
9D0026AC  F48000A0   SDC1 F0, 160(A0)
9D0026B0  24E7FFFF   ADDIU A3, A3, -1
9D0026B4  1000FF3E   BEQ ZERO, ZERO, 0x9D0023B0
9D0026B8  25080001   ADDIU T0, T0, 1
9D0026BC  2A420003   SLTI V0, S2, 3
9D0026C0  50400019   BEQL V0, ZERO, 0x9D002728
9D0026C4  24020003   ADDIU V0, ZERO, 3
9D0026C8  1E40006D   BGTZ S2, 0x9D002880
9D0026CC  00601025   OR V0, V1, ZERO
9D0026D0  AFA00240   SW ZERO, 576(SP)
9D0026D4  AFA00244   SW ZERO, 580(SP)
9D0026D8  12400035   BEQ S2, ZERO, 0x9D0027B0
9D0026DC  27A400B0   ADDIU A0, SP, 176
9D0026E0  8FBF027C   LW RA, 636(SP)
9D0026E4  32020007   ANDI V0, S0, 7
9D0026E8  8FBE0278   LW FP, 632(SP)
9D0026EC  8FB70274   LW S7, 628(SP)
9D0026F0  8FB60270   LW S6, 624(SP)
9D0026F4  8FB5026C   LW S5, 620(SP)
9D0026F8  8FB40268   LW S4, 616(SP)
9D0026FC  8FB30264   LW S3, 612(SP)
9D002700  8FB20260   LW S2, 608(SP)
9D002704  8FB1025C   LW S1, 604(SP)
9D002708  8FB00258   LW S0, 600(SP)
9D00270C  D7BC02A0   LDC1 F28, 672(SP)
9D002710  D7BA0298   LDC1 F26, 664(SP)
9D002714  D7B80290   LDC1 F24, 656(SP)
9D002718  D7B60288   LDC1 F22, 648(SP)
9D00271C  D7B40280   LDC1 F20, 640(SP)
9D002720  03E00008   JR RA
9D002724  27BD02B0   ADDIU SP, SP, 688
9D002728  1642FFED   BNE S2, V0, 0x9D0026E0
9D00272C  27A800B0   ADDIU T0, SP, 176
9D002730  000310C0   SLL V0, V1, 3
9D002734  01021021   ADDU V0, T0, V0
9D002738  00402025   OR A0, V0, ZERO
9D00273C  00603025   OR A2, V1, ZERO
9D002740  1CC0005B   BGTZ A2, 0x9D0028B0
9D002744  2484FFF8   ADDIU A0, A0, -8
9D002748  00602025   OR A0, V1, ZERO
9D00274C  28860002   SLTI A2, A0, 2
9D002750  10C00060   BEQ A2, ZERO, 0x9D0028D4
9D002754  2442FFF8   ADDIU V0, V0, -8
9D002758  00003025   OR A2, ZERO, ZERO
9D00275C  00003825   OR A3, ZERO, ZERO
9D002760  28620002   SLTI V0, V1, 2
9D002764  10400064   BEQ V0, ZERO, 0x9D0028F8
9D002768  000310C0   SLL V0, V1, 3
9D00276C  8FA400B0   LW A0, 176(SP)
9D002770  8FA500B4   LW A1, 180(SP)
9D002774  8FA800B8   LW T0, 184(SP)
9D002778  8FA900BC   LW T1, 188(SP)
9D00277C  16C00066   BNE S6, ZERO, 0x9D002918
9D002780  AEA40000   SW A0, 0(S5)
9D002784  AEA50004   SW A1, 4(S5)
9D002788  AEA80008   SW T0, 8(S5)
9D00278C  AEA9000C   SW T1, 12(S5)
9D002790  AEA60010   SW A2, 16(S5)
9D002794  1000FFD2   BEQ ZERO, ZERO, 0x9D0026E0
9D002798  AEA70014   SW A3, 20(S5)
9D00279C  D7A10240   LDC1 F1, 576(SP)
9D0027A0  4C440001   LDXC1 F0, 4(V0)
9D0027A4  2463FFFF   ADDIU V1, V1, -1
9D0027A8  46200800   ADD.D F0, F1, F0
9D0027AC  F7A00240   SDC1 F0, 576(SP)
9D0027B0  0461FFFA   BGEZ V1, 0x9D00279C
9D0027B4  000310C0   SLL V0, V1, 3
9D0027B8  12C0000A   BEQ S6, ZERO, 0x9D0027E4
9D0027BC  D7A00240   LDC1 F0, 576(SP)
9D0027C0  8FA20240   LW V0, 576(SP)
9D0027C4  8FA30244   LW V1, 580(SP)
9D0027C8  AFA20248   SW V0, 584(SP)
9D0027CC  3C028000   LUI V0, -32768
9D0027D0  00431026   XOR V0, V0, V1
9D0027D4  AFA2024C   SW V0, 588(SP)
9D0027D8  D7A00248   LDC1 F0, 584(SP)
9D0027DC  F7A00240   SDC1 F0, 576(SP)
9D0027E0  D7A00240   LDC1 F0, 576(SP)
9D0027E4  1000FFBE   BEQ ZERO, ZERO, 0x9D0026E0
9D0027E8  F6A00000   SDC1 F0, 0(S5)
9D0027EC  D7A10240   LDC1 F1, 576(SP)
9D0027F0  4C860001   LDXC1 F0, 6(A0)
9D0027F4  2442FFFF   ADDIU V0, V0, -1
9D0027F8  46200800   ADD.D F0, F1, F0
9D0027FC  F7A00240   SDC1 F0, 576(SP)
9D002800  0441FFFA   BGEZ V0, 0x9D0027EC
9D002804  000220C0   SLL A0, V0, 3
9D002808  8FA60240   LW A2, 576(SP)
9D00280C  12C00005   BEQ S6, ZERO, 0x9D002824
9D002810  8FA70244   LW A3, 580(SP)
9D002814  8FA40244   LW A0, 580(SP)
9D002818  8FA60240   LW A2, 576(SP)
9D00281C  3C028000   LUI V0, -32768
9D002820  00443826   XOR A3, V0, A0
9D002824  D7A000B0   LDC1 F0, 176(SP)
9D002828  D7A10240   LDC1 F1, 576(SP)
9D00282C  AEA60000   SW A2, 0(S5)
9D002830  AEA70004   SW A3, 4(S5)
9D002834  46210001   SUB.D F0, F0, F1
9D002838  24020001   ADDIU V0, ZERO, 1
9D00283C  27A800B0   ADDIU T0, SP, 176
9D002840  44060000   MFC1 A2, F0
9D002844  44670000   MFHC1 A3, F0
9D002848  0062202A   SLT A0, V1, V0
9D00284C  50800010   BEQL A0, ZERO, 0x9D002890
9D002850  000220C0   SLL A0, V0, 3
9D002854  52C00008   BEQL S6, ZERO, 0x9D002878
9D002858  AEA60008   SW A2, 8(S5)
9D00285C  3C028000   LUI V0, -32768
9D002860  00471026   XOR V0, V0, A3
9D002864  AFA60240   SW A2, 576(SP)
9D002868  AFA20244   SW V0, 580(SP)
9D00286C  8FA60240   LW A2, 576(SP)
9D002870  8FA70244   LW A3, 580(SP)
9D002874  AEA60008   SW A2, 8(S5)
9D002878  1000FF99   BEQ ZERO, ZERO, 0x9D0026E0
9D00287C  AEA7000C   SW A3, 12(S5)
9D002880  AFA00240   SW ZERO, 576(SP)
9D002884  AFA00244   SW ZERO, 580(SP)
9D002888  1000FFDD   BEQ ZERO, ZERO, 0x9D002800
9D00288C  27A600B0   ADDIU A2, SP, 176
9D002890  44860800   MTC1 A2, F1
9D002894  4C880001   LDXC1 F0, 8(A0)
9D002898  44E70800   MTHC1 A3, F1
9D00289C  24420001   ADDIU V0, V0, 1
9D0028A0  46200800   ADD.D F0, F1, F0
9D0028A4  44060000   MFC1 A2, F0
9D0028A8  1000FFE7   BEQ ZERO, ZERO, 0x9D002848
9D0028AC  44670000   MFHC1 A3, F0
9D0028B0  D4800000   LDC1 F0, 0(A0)
9D0028B4  D4810008   LDC1 F1, 8(A0)
9D0028B8  24C6FFFF   ADDIU A2, A2, -1
9D0028BC  46210080   ADD.D F2, F0, F1
9D0028C0  46220001   SUB.D F0, F0, F2
9D0028C4  F4820000   SDC1 F2, 0(A0)
9D0028C8  46210000   ADD.D F0, F0, F1
9D0028CC  1000FF9C   BEQ ZERO, ZERO, 0x9D002740
9D0028D0  F4800008   SDC1 F0, 8(A0)
9D0028D4  D4400000   LDC1 F0, 0(V0)
9D0028D8  D4410008   LDC1 F1, 8(V0)
9D0028DC  2484FFFF   ADDIU A0, A0, -1
9D0028E0  46210080   ADD.D F2, F0, F1
9D0028E4  46220001   SUB.D F0, F0, F2
9D0028E8  F4420000   SDC1 F2, 0(V0)
9D0028EC  46210000   ADD.D F0, F0, F1
9D0028F0  1000FF96   BEQ ZERO, ZERO, 0x9D00274C
9D0028F4  F4400008   SDC1 F0, 8(V0)
9D0028F8  44860800   MTC1 A2, F1
9D0028FC  4C480001   LDXC1 F0, 8(V0)
9D002900  44E70800   MTHC1 A3, F1
9D002904  2463FFFF   ADDIU V1, V1, -1
9D002908  46200800   ADD.D F0, F1, F0
9D00290C  44060000   MFC1 A2, F0
9D002910  1000FF93   BEQ ZERO, ZERO, 0x9D002760
9D002914  44670000   MFHC1 A3, F0
9D002918  3C028000   LUI V0, -32768
9D00291C  00451826   XOR V1, V0, A1
9D002920  AEA30004   SW V1, 4(S5)
9D002924  00491826   XOR V1, V0, T1
9D002928  00471026   XOR V0, V0, A3
9D00292C  AEA80008   SW T0, 8(S5)
9D002930  AEA3000C   SW V1, 12(S5)
9D002934  AEA60010   SW A2, 16(S5)
9D002938  1000FF69   BEQ ZERO, ZERO, 0x9D0026E0
9D00293C  AEA20014   SW V0, 20(S5)
---  /data01/build/bamboo/xml-data/build-dir/M32DEV-GMB34-JOB1/src/xc32-musl-stdlib/musl/musl-1.1.18/src/math/__rem_pio2.c
-----*  Optimizer-Generated Procedural Abstractions  *----------------------------------------------
9D0063E8  27BDFFB0   ADDIU SP, SP, -80
9D0063F0  8FA20054   LW V0, 84(SP)
9D0063F4  3C03400F   LUI V1, 16399
9D0063F8  24636A7B   ADDIU V1, V1, 27259
9D0063FC  7C45F000   EXT A1, V0, 0, 31
9D006400  00A3182B   SLTU V1, A1, V1
9D006404  AFB10048   SW S1, 72(SP)
9D006408  AFBF004C   SW RA, 76(SP)
9D00640C  AFB00044   SW S0, 68(SP)
9D006410  8FA70050   LW A3, 80(SP)
9D006414  1060003B   BEQ V1, ZERO, 0x9D006504
9D006418  00028FC2   SRL S1, V0, 31
9D00641C  3C030009   LUI V1, 9
9D006420  7C429800   EXT V0, V0, 0, 20
9D006424  246321FB   ADDIU V1, V1, 8699
9D006428  1043007B   BEQ V0, V1, 0x9D006618
9D00642C  3C024002   LUI V0, 16386
9D006430  3442D97D   ORI V0, V0, -9859
9D006434  00A2282B   SLTU A1, A1, V0
9D006438  10A0001C   BEQ A1, ZERO, 0x9D0064AC
9D00643C  3C039D01   LUI V1, -25343
9D006440  3C039D01   LUI V1, -25343
9D006444  3C029D01   LUI V0, -25343
9D006448  1620000E   BNE S1, ZERO, 0x9D006484
9D00644C  D4601D18   LDC1 F0, 7448(V1)
9D006450  46206001   SUB.D F0, F12, F0
9D006454  D4421D20   LDC1 F2, 7456(V0)
9D006458  24020001   ADDIU V0, ZERO, 1
9D00645C  46220101   SUB.D F4, F0, F2
9D006460  46240001   SUB.D F0, F0, F4
9D006464  F4C40000   SDC1 F4, 0(A2)
9D006468  46220001   SUB.D F0, F0, F2
9D00646C  F4C00008   SDC1 F0, 8(A2)
9D006470  8FBF004C   LW RA, 76(SP)
9D006474  8FB10048   LW S1, 72(SP)
9D006478  8FB00044   LW S0, 68(SP)
9D00647C  03E00008   JR RA
9D006480  27BD0050   ADDIU SP, SP, 80
9D006484  D7A10050   LDC1 F1, 80(SP)
9D006488  D4421D20   LDC1 F2, 7456(V0)
9D00648C  2402FFFF   ADDIU V0, ZERO, -1
9D006490  46200800   ADD.D F0, F1, F0
9D006494  46220100   ADD.D F4, F0, F2
9D006498  46240001   SUB.D F0, F0, F4
9D00649C  F4C40000   SDC1 F4, 0(A2)
9D0064A0  46220000   ADD.D F0, F0, F2
9D0064A4  1000FFF2   BEQ ZERO, ZERO, 0x9D006470
9D0064A8  F4C00008   SDC1 F0, 8(A2)
9D0064AC  3C029D01   LUI V0, -25343
9D0064B0  D4601D28   LDC1 F0, 7464(V1)
9D0064B4  1620000A   BNE S1, ZERO, 0x9D0064E0
9D0064B8  D7A10050   LDC1 F1, 80(SP)
9D0064BC  46200801   SUB.D F0, F1, F0
9D0064C0  D4421D30   LDC1 F2, 7472(V0)
9D0064C4  24020002   ADDIU V0, ZERO, 2
9D0064C8  46220101   SUB.D F4, F0, F2
9D0064CC  46240001   SUB.D F0, F0, F4
9D0064D0  F4C40000   SDC1 F4, 0(A2)
9D0064D4  46220001   SUB.D F0, F0, F2
9D0064D8  1000FFE5   BEQ ZERO, ZERO, 0x9D006470
9D0064DC  F4C00008   SDC1 F0, 8(A2)
9D0064E0  46200800   ADD.D F0, F1, F0
9D0064E4  D4421D30   LDC1 F2, 7472(V0)
9D0064E8  2402FFFE   ADDIU V0, ZERO, -2
9D0064EC  46220100   ADD.D F4, F0, F2
9D0064F0  46240001   SUB.D F0, F0, F4
9D0064F4  F4C40000   SDC1 F4, 0(A2)
9D0064F8  46220000   ADD.D F0, F0, F2
9D0064FC  1000FFDC   BEQ ZERO, ZERO, 0x9D006470
9D006500  F4C00008   SDC1 F0, 8(A2)
9D006504  3C03401C   LUI V1, 16412
9D006508  2463463C   ADDIU V1, V1, 17980
9D00650C  00A3182B   SLTU V1, A1, V1
9D006510  5060003D   BEQL V1, ZERO, 0x9D006608
9D006514  3C034139   LUI V1, 16697
9D006518  3C024015   LUI V0, 16405
9D00651C  3442FDBD   ORI V0, V0, -579
9D006520  00A2102B   SLTU V0, A1, V0
9D006524  1040001F   BEQ V0, ZERO, 0x9D0065A4
9D006528  3C024019   LUI V0, 16409
9D00652C  3C024012   LUI V0, 16402
9D006530  3442D97C   ORI V0, V0, -9860
9D006534  10A20038   BEQ A1, V0, 0x9D006618
9D006538  3C029D01   LUI V0, -25343
9D00653C  D4401D20   LDC1 F0, 7456(V0)
9D006540  3C029D01   LUI V0, -25343
9D006544  D4441D38   LDC1 F4, 7480(V0)
9D006548  3C029D01   LUI V0, -25343
9D00654C  1620000B   BNE S1, ZERO, 0x9D00657C
9D006550  46240102   MUL.D F4, F0, F4
9D006554  D4421D40   LDC1 F2, 7488(V0)
9D006558  D7A00050   LDC1 F0, 80(SP)
9D00655C  24020003   ADDIU V0, ZERO, 3
9D006560  46220081   SUB.D F2, F0, F2
9D006564  46241001   SUB.D F0, F2, F4
9D006568  46201081   SUB.D F2, F2, F0
9D00656C  F4C00000   SDC1 F0, 0(A2)
9D006570  46241081   SUB.D F2, F2, F4
9D006574  1000FFBE   BEQ ZERO, ZERO, 0x9D006470
9D006578  F4C20008   SDC1 F2, 8(A2)
9D00657C  D4401D40   LDC1 F0, 7488(V0)
9D006580  D7A10050   LDC1 F1, 80(SP)
9D006584  2402FFFD   ADDIU V0, ZERO, -3
9D006588  46200800   ADD.D F0, F1, F0
9D00658C  46202080   ADD.D F2, F4, F0
9D006590  46220001   SUB.D F0, F0, F2
9D006594  F4C20000   SDC1 F2, 0(A2)
9D006598  46240000   ADD.D F0, F0, F4
9D00659C  1000FFB4   BEQ ZERO, ZERO, 0x9D006470
9D0065A0  F4C00008   SDC1 F0, 8(A2)
9D0065A4  244221FB   ADDIU V0, V0, 8699
9D0065A8  10A2001B   BEQ A1, V0, 0x9D006618
9D0065AC  3C039D01   LUI V1, -25343
9D0065B0  3C029D01   LUI V0, -25343
9D0065B4  D4601D48   LDC1 F0, 7496(V1)
9D0065B8  1620000A   BNE S1, ZERO, 0x9D0065E4
9D0065BC  D7A10050   LDC1 F1, 80(SP)
9D0065C0  46200801   SUB.D F0, F1, F0
9D0065C4  D4421D50   LDC1 F2, 7504(V0)
9D0065C8  24020004   ADDIU V0, ZERO, 4
9D0065CC  46220101   SUB.D F4, F0, F2
9D0065D0  46240001   SUB.D F0, F0, F4
9D0065D4  F4C40000   SDC1 F4, 0(A2)
9D0065D8  46220001   SUB.D F0, F0, F2
9D0065DC  1000FFA4   BEQ ZERO, ZERO, 0x9D006470
9D0065E0  F4C00008   SDC1 F0, 8(A2)
9D0065E4  46200800   ADD.D F0, F1, F0
9D0065E8  D4421D50   LDC1 F2, 7504(V0)
9D0065EC  2402FFFC   ADDIU V0, ZERO, -4
9D0065F0  46220100   ADD.D F4, F0, F2
9D0065F4  46240001   SUB.D F0, F0, F4
9D0065F8  F4C40000   SDC1 F4, 0(A2)
9D0065FC  46220000   ADD.D F0, F0, F2
9D006600  1000FF9B   BEQ ZERO, ZERO, 0x9D006470
9D006604  F4C00008   SDC1 F0, 8(A2)
9D006608  246321FB   ADDIU V1, V1, 8699
9D00660C  00A3182B   SLTU V1, A1, V1
9D006610  10600040   BEQ V1, ZERO, 0x9D006714
9D006614  3C037FF0   LUI V1, 32752
9D006618  3C029D01   LUI V0, -25343
9D00661C  D4401D60   LDC1 F0, 7520(V0)
9D006620  3C029D01   LUI V0, -25343
9D006624  D7A10050   LDC1 F1, 80(SP)
9D006628  D4441D58   LDC1 F4, 7512(V0)
9D00662C  3C039D01   LUI V1, -25343
9D006630  00052D02   SRL A1, A1, 20
9D006634  4C040921   MADD.D F4, F0, F1, F4
9D006638  46202101   SUB.D F4, F4, F0
9D00663C  4620200D   TRUNC.W.D F0, F4
9D006640  44020000   MFC1 V0, F0
9D006644  D4601D18   LDC1 F0, 7448(V1)
9D006648  3C039D01   LUI V1, -25343
9D00664C  D4621D20   LDC1 F2, 7456(V1)
9D006650  46202002   MUL.D F0, F4, F0
9D006654  46222082   MUL.D F2, F4, F2
9D006658  46200801   SUB.D F0, F1, F0
9D00665C  46220041   SUB.D F1, F0, F2
9D006660  44690800   MFHC1 T1, F1
9D006664  7D235500   EXT V1, T1, 20, 11
9D006668  00A31823   SUBU V1, A1, V1
9D00666C  28630011   SLTI V1, V1, 17
9D006670  10600008   BEQ V1, ZERO, 0x9D006694
9D006674  44080800   MFC1 T0, F1
9D006678  ACC80000   SW T0, 0(A2)
9D00667C  ACC90004   SW T1, 4(A2)
9D006680  D4C10000   LDC1 F1, 0(A2)
9D006684  46210001   SUB.D F0, F0, F1
9D006688  46220001   SUB.D F0, F0, F2
9D00668C  1000FF78   BEQ ZERO, ZERO, 0x9D006470
9D006690  F4C00008   SDC1 F0, 8(A2)
9D006694  3C039D01   LUI V1, -25343
9D006698  D4621D68   LDC1 F2, 7528(V1)
9D00669C  3C039D01   LUI V1, -25343
9D0066A0  46222082   MUL.D F2, F4, F2
9D0066A4  46220181   SUB.D F6, F0, F2
9D0066A8  46260001   SUB.D F0, F0, F6
9D0066AC  46220081   SUB.D F2, F0, F2
9D0066B0  D4601D70   LDC1 F0, 7536(V1)
9D0066B4  4C4020A9   MSUB.D F2, F2, F4, F0
9D0066B8  46223001   SUB.D F0, F6, F2
9D0066BC  44690000   MFHC1 T1, F0
9D0066C0  7D235500   EXT V1, T1, 20, 11
9D0066C4  00A32823   SUBU A1, A1, V1
9D0066C8  28A50032   SLTI A1, A1, 50
9D0066CC  10A00005   BEQ A1, ZERO, 0x9D0066E4
9D0066D0  44080000   MFC1 T0, F0
9D0066D4  ACC80000   SW T0, 0(A2)
9D0066D8  ACC90004   SW T1, 4(A2)
9D0066DC  1000FFE8   BEQ ZERO, ZERO, 0x9D006680
9D0066E0  46203006   MOV.D F0, F6
9D0066E4  3C039D01   LUI V1, -25343
9D0066E8  D4621D78   LDC1 F2, 7544(V1)
9D0066EC  3C039D01   LUI V1, -25343
9D0066F0  46222082   MUL.D F2, F4, F2
9D0066F4  46223001   SUB.D F0, F6, F2
9D0066F8  46203181   SUB.D F6, F6, F0
9D0066FC  46223181   SUB.D F6, F6, F2
9D006700  D4621D80   LDC1 F2, 7552(V1)
9D006704  4CC220A9   MSUB.D F2, F6, F4, F2
9D006708  46220101   SUB.D F4, F0, F2
9D00670C  1000FFDC   BEQ ZERO, ZERO, 0x9D006680
9D006710  F4C40000   SDC1 F4, 0(A2)
9D006714  00A3182B   SLTU V1, A1, V1
9D006718  14600007   BNE V1, ZERO, 0x9D006738
9D00671C  7C449800   EXT A0, V0, 0, 20
9D006720  D7A00050   LDC1 F0, 80(SP)
9D006724  00001025   OR V0, ZERO, ZERO
9D006728  46200001   SUB.D F0, F0, F0
9D00672C  F4C00008   SDC1 F0, 8(A2)
9D006730  1000FF4F   BEQ ZERO, ZERO, 0x9D006470
9D006734  F4C00000   SDC1 F0, 0(A2)
9D006738  00E01025   OR V0, A3, ZERO
9D00673C  44821000   MTC1 V0, F2
9D006740  3C074160   LUI A3, 16736
9D006744  00E41825   OR V1, A3, A0
9D006748  44E31000   MTHC1 V1, F2
9D00674C  3C029D01   LUI V0, -25343
9D006750  4620100D   TRUNC.W.D F0, F2
9D006754  46800021   CVT.D.W F0, F0
9D006758  F7A00018   SDC1 F0, 24(SP)
9D00675C  46201001   SUB.D F0, F2, F0
9D006760  D4441D88   LDC1 F4, 7560(V0)
9D006764  27A20018   ADDIU V0, SP, 24
9D006768  24070002   ADDIU A3, ZERO, 2
9D00676C  46240002   MUL.D F0, F0, F4
9D006770  00402025   OR A0, V0, ZERO
9D006774  4620004D   TRUNC.W.D F1, F0
9D006778  468008A1   CVT.D.W F2, F1
9D00677C  46220001   SUB.D F0, F0, F2
9D006780  F7A20020   SDC1 F2, 32(SP)
9D006784  46240002   MUL.D F0, F0, F4
9D006788  F7A00028   SDC1 F0, 40(SP)
9D00678C  44800000   MTC1 ZERO, F0
9D006790  44E00000   MTHC1 ZERO, F0
9D006794  2442FFF8   ADDIU V0, V0, -8
9D006798  D4410018   LDC1 F1, 24(V0)
9D00679C  46200832   C.EQ.D F1, F0
9D0067A0  4503FFFC   BC1TL 0x9D006794
9D0067A4  24E7FFFF   ADDIU A3, A3, -1
9D0067A8  00C08025   OR S0, A2, ZERO
9D0067AC  24020001   ADDIU V0, ZERO, 1
9D0067B0  00053502   SRL A2, A1, 20
9D0067B4  AFA20010   SW V0, 16(SP)
9D0067B8  24E70001   ADDIU A3, A3, 1
9D0067BC  24C6FBEA   ADDIU A2, A2, -1046
9D0067C0  0F40083E   JAL __rem_pio2_large
9D0067C4  27A50030   ADDIU A1, SP, 48
9D0067C8  1220000E   BEQ S1, ZERO, 0x9D006804
9D0067CC  D7A00030   LDC1 F0, 48(SP)
9D0067D0  8FA30030   LW V1, 48(SP)
9D0067D4  8FA40034   LW A0, 52(SP)
9D0067D8  3C058000   LUI A1, -32768
9D0067DC  AE030000   SW V1, 0(S0)
9D0067E0  8FA30038   LW V1, 56(SP)
9D0067E4  00852026   XOR A0, A0, A1
9D0067E8  AE040004   SW A0, 4(S0)
9D0067EC  AE030008   SW V1, 8(S0)
9D0067F0  8FA3003C   LW V1, 60(SP)
9D0067F4  00021023   SUBU V0, ZERO, V0
9D0067F8  00651826   XOR V1, V1, A1
9D0067FC  1000FF1C   BEQ ZERO, ZERO, 0x9D006470
9D006800  AE03000C   SW V1, 12(S0)
9D006804  F6000000   SDC1 F0, 0(S0)
9D006808  D7A00038   LDC1 F0, 56(SP)
9D00680C  1000FF18   BEQ ZERO, ZERO, 0x9D006470
9D006810  F6000008   SDC1 F0, 8(S0)
---  /data01/build/bamboo/xml-data/build-dir/M32DEV-GMB34-JOB1/src/xc32-musl-stdlib/musl/musl-1.1.18/src/math/__cos.c
-----*  Optimizer-Generated Procedural Abstractions  *----------------------------------------------
9D01198C  462C6482   MUL.D F18, F12, F12
9D011990  3C029D01   LUI V0, -25343
9D011994  D44A2CD8   LDC1 F10, 11480(V0)
9D011998  3C029D01   LUI V0, -25343
9D01199C  D4502CE0   LDC1 F16, 11488(V0)
9D0119A0  3C029D01   LUI V0, -25343
9D0119A4  D4442CE8   LDC1 F4, 11496(V0)
9D0119A8  3C029D01   LUI V0, -25343
9D0119AC  D4422CF0   LDC1 F2, 11504(V0)
9D0119B0  3C029D01   LUI V0, -25343
9D0119B4  46329202   MUL.D F8, F18, F18
9D0119B8  4C449121   MADD.D F4, F2, F18, F4
9D0119BC  D4422CF8   LDC1 F2, 11512(V0)
9D0119C0  3C029D01   LUI V0, -25343
9D0119C4  D4462D00   LDC1 F6, 11520(V0)
9D0119C8  3C029D01   LUI V0, -25343
9D0119CC  462A9282   MUL.D F10, F18, F10
9D0119D0  462E6382   MUL.D F14, F12, F14
9D0119D4  46284202   MUL.D F8, F8, F8
9D0119D8  4C522129   MSUB.D F4, F2, F4, F18
9D0119DC  D4422D08   LDC1 F2, 11528(V0)
9D0119E0  3C029D01   LUI V0, -25343
9D0119E4  4C4691A9   MSUB.D F6, F2, F18, F6
9D0119E8  D4422D10   LDC1 F2, 11536(V0)
9D0119EC  462A8001   SUB.D F0, F16, F10
9D0119F0  4C5231A1   MADD.D F6, F2, F6, F18
9D0119F4  46323182   MUL.D F6, F6, F18
9D0119F8  4CC820A1   MADD.D F2, F6, F4, F8
9D0119FC  4DD210A9   MSUB.D F2, F14, F2, F18
9D011A00  46208381   SUB.D F14, F16, F0
9D011A04  462A7381   SUB.D F14, F14, F10
9D011A08  462E1080   ADD.D F2, F2, F14
9D011A0C  03E00008   JR RA
9D011A10  46201000   ADD.D F0, F2, F0
---  /data01/build/bamboo/xml-data/build-dir/M32DEV-GMB34-JOB1/src/xc32-musl-stdlib/musl/musl-1.1.18/src/malloc/pic32m/expand_heap.c
-----*  Optimizer-Generated Procedural Abstractions  *----------------------------------------------
9D012DD0  8C840000   LW A0, 0(A0)
9D012DD4  04810003   BGEZ A0, __expand_heap
9D012DD8  00001025   OR V0, ZERO, ZERO
9D012DDC  03E00008   JR RA
9D012DE0  00000000   NOP
9D012DE4  27BDFFE8   ADDIU SP, SP, -24
9D012DE8  AFBF0014   SW RA, 20(SP)
9D012DEC  0F4042C8   JAL _sbrk
9D012DF0  00000000   NOP
9D012DF4  2403FFFF   ADDIU V1, ZERO, -1
9D012DF8  50430001   BEQL V0, V1, __expand_heap
9D012DFC  00001025   OR V0, ZERO, ZERO
9D012E00  8FBF0014   LW RA, 20(SP)
9D012E04  03E00008   JR RA
9D012E08  27BD0018   ADDIU SP, SP, 24
---  /data01/build/bamboo/xml-data/build-dir/M32DEV-GMB34-JOB1/src/xc32-musl-stdlib/musl/musl-1.1.18/src/malloc/mchp/malloc.c
-----*  Optimizer-Generated Procedural Abstractions  *----------------------------------------------
00000000  00000000   NOP
0000000C  00000000   NOP
00000014  00000000   NOP
0000001C  00000000   NOP
00000020  00000000   NOP
00000024  00000000   NOP
00000028  00000000   NOP
0000002C  00000000   NOP
00000030  00000000   NOP
00000040  00000000   NOP
00000048  00000000   NOP
00000054  00000000   NOP
00000058  00000000   NOP
00000060  00000000   NOP
00000068  00000000   NOP
0000006C  00000000   NOP
00000070  00000000   NOP
00000074  00000000   NOP
00000078  00000000   NOP
00000084  00000000   NOP
0000008C  00000000   NOP
00000098  00000000   NOP
000000A0  00000000   NOP
000000A8  00000000   NOP
000000B0  00000000   NOP
000000B4  00000000   NOP
000000B8  00000000   NOP
000000BC  00000000   NOP
000000C0  00000000   NOP
000000C4  00000000   NOP
000000C8  00000000   NOP
000000D0  00000000   NOP
000000D8  00000000   NOP
000000E0  00000000   NOP
000000E8  00000000   NOP
000000F0  00000000   NOP
00000100  00000000   NOP
00000108  00000000   NOP
00000110  00000000   NOP
9D000190  8C860004   LW A2, 4(A0)
9D000194  30C20001   ANDI V0, A2, 1
9D000198  10400008   BEQ V0, ZERO, alloc_fwd
9D00019C  00803825   OR A3, A0, ZERO
9D0001A0  03E00008   JR RA
9D0001A4  00001025   OR V0, ZERO, ZERO
9D0001A8  30C20001   ANDI V0, A2, 1
9D0001AC  10400005   BEQ V0, ZERO, alloc_fwd
9D0001B0  00001025   OR V0, ZERO, ZERO
9D0001B4  10000010   BEQ ZERO, ZERO, alloc_fwd
9D0001B8  8FBF0014   LW RA, 20(SP)
9D0001BC  27BDFFE8   ADDIU SP, SP, -24
9D0001C0  AFBF0014   SW RA, 20(SP)
9D0001C4  0F404871   JAL bin_index
9D0001C8  00C02025   OR A0, A2, ZERO
9D0001CC  00402025   OR A0, V0, ZERO
9D0001D0  0F404C2A   JAL lock_bin
9D0001D4  00404025   OR T0, V0, ZERO
9D0001D8  8CE20004   LW V0, 4(A3)
9D0001DC  5446FFF2   BNEL V0, A2, alloc_fwd
9D0001E0  8CE60004   LW A2, 4(A3)
9D0001E4  01002825   OR A1, T0, ZERO
9D0001E8  0F40431F   JAL unbin
9D0001EC  00E02025   OR A0, A3, ZERO
9D0001F0  24020001   ADDIU V0, ZERO, 1
9D0001F4  8FBF0014   LW RA, 20(SP)
9D0001F8  03E00008   JR RA
9D0001FC  27BD0018   ADDIU SP, SP, 24
9D007EF8  27BDFFD8   ADDIU SP, SP, -40
9D007EFC  AFA40028   SW A0, 40(SP)
9D007F00  27A40028   ADDIU A0, SP, 40
9D007F04  AFBF0024   SW RA, 36(SP)
9D007F08  AFB10020   SW S1, 32(SP)
9D007F0C  0F4049B3   JAL adjust_size
9D007F10  AFB0001C   SW S0, 28(SP)
9D007F14  04410007   BGEZ V0, malloc::bin_index_up
9D007F18  8FA20028   LW V0, 40(SP)
9D007F1C  00001025   OR V0, ZERO, ZERO
9D007F20  8FBF0024   LW RA, 36(SP)
9D007F24  8FB10020   LW S1, 32(SP)
9D007F28  8FB0001C   LW S0, 28(SP)
9D007F2C  03E00008   JR RA
9D007F30  27BD0028   ADDIU SP, SP, 40
9D007F34  00021102   SRL V0, V0, 4
9D007F38  2451FFFF   ADDIU S1, V0, -1
9D007F3C  2E230021   SLTIU V1, S1, 33
9D007F40  14600009   BNE V1, ZERO, 0x9D007F68
9D007F44  2442FFFE   ADDIU V0, V0, -2
9D007F48  3C039D01   LUI V1, -25343
9D007F4C  2C440200   SLTIU A0, V0, 512
9D007F50  10800023   BEQ A0, ZERO, malloc::bin_index_up
9D007F54  246324D8   ADDIU V1, V1, 9432
9D007F58  000210C2   SRL V0, V0, 3
9D007F5C  00621021   ADDU V0, V1, V0
9D007F60  9051FFFC   LBU S1, -4(V0)
9D007F64  26310001   ADDIU S1, S1, 1
9D007F68  02203025   OR A2, S1, ZERO
9D007F6C  24040001   ADDIU A0, ZERO, 1
9D007F70  0F404BB0   JAL __ashldi3
9D007F74  00002825   OR A1, ZERO, ZERO
9D007F78  00025823   SUBU T3, ZERO, V0
9D007F7C  000B382B   SLTU A3, ZERO, T3
9D007F80  00031823   SUBU V1, ZERO, V1
9D007F84  3C0A8000   LUI T2, -32768
9D007F88  3C089D01   LUI T0, -25343
9D007F8C  00673823   SUBU A3, V1, A3
9D007F90  250824B8   ADDIU T0, T0, 9400
9D007F98  25491468   ADDIU T1, T2, 5224
9D007F9C  8D421468   LW V0, 5224(T2)
9D007FA0  8D43146C   LW V1, 5228(T2)
9D007FA4  01622824   AND A1, T3, V0
9D007FA8  00E31824   AND V1, A3, V1
9D007FAC  00A32025   OR A0, A1, V1
9D007FB0  14800039   BNE A0, ZERO, first_set
9D007FB4  8FA20028   LW V0, 40(SP)
9D007FB8  27A40010   ADDIU A0, SP, 16
9D007FBC  24420010   ADDIU V0, V0, 16
9D007FC0  0F404B74   JAL __expand_heap
9D007FC4  AFA20010   SW V0, 16(SP)
9D007FC8  1440000A   BNE V0, ZERO, expand_heap
9D007FCC  3C038000   LUI V1, -32768
9D007FD0  3C038000   LUI V1, -32768
9D007FD4  2404000C   ADDIU A0, ZERO, 12
9D007FD8  1000FFD1   BEQ ZERO, ZERO, 0x9D007F20
9D007FDC  AC642528   SW A0, 9512(V1)
9D007FE0  000211C2   SRL V0, V0, 7
9D007FE4  00621021   ADDU V0, V1, V0
9D007FE8  9051FFFC   LBU S1, -4(V0)
9D007FEC  1000FFDE   BEQ ZERO, ZERO, 0x9D007F68
9D007FF0  26310011   ADDIU S1, S1, 17
9D007FF4  8C711460   LW S1, 5216(V1)
9D007FF8  10510006   BEQ V0, S1, 0x9D008014
9D007FFC  8FA40010   LW A0, 16(SP)
9D008000  24510010   ADDIU S1, V0, 16
9D008004  2484FFF0   ADDIU A0, A0, -16
9D008008  AFA40010   SW A0, 16(SP)
9D00800C  24040001   ADDIU A0, ZERO, 1
9D008010  AC440008   SW A0, 8(V0)
9D008014  8FA20010   LW V0, 16(SP)
9D008018  2630FFF8   ADDIU S0, S1, -8
9D00801C  02222021   ADDU A0, S1, V0
9D008020  AC641460   SW A0, 5216(V1)
9D008024  34420001   ORI V0, V0, 1
9D008028  24030001   ADDIU V1, ZERO, 1
9D00802C  AC82FFF8   SW V0, -8(A0)
9D008030  AC83FFFC   SW V1, -4(A0)
9D008034  1200FFB9   BEQ S0, ZERO, 0x9D007F1C
9D008038  AE22FFFC   SW V0, -4(S1)
9D00803C  0F404781   JAL alloc_rev
9D008040  02002025   OR A0, S0, ZERO
9D008044  10400010   BEQ V0, ZERO, 0x9D008088
9D008048  8FA50028   LW A1, 40(SP)
9D00804C  8E23FFF8   LW V1, -8(S1)
9D008050  2402FFFE   ADDIU V0, ZERO, -2
9D008054  8E25FFFC   LW A1, -4(S1)
9D008058  00431824   AND V1, V0, V1
9D00805C  02031823   SUBU V1, S0, V1
9D008060  8C640004   LW A0, 4(V1)
9D008064  00442024   AND A0, V0, A0
9D008068  00852021   ADDU A0, A0, A1
9D00806C  AC640004   SW A0, 4(V1)
9D008070  8E25FFFC   LW A1, -4(S1)
9D008074  00451024   AND V0, V0, A1
9D008078  02028021   ADDU S0, S0, V0
9D00807C  AE040000   SW A0, 0(S0)
9D008080  00608025   OR S0, V1, ZERO
9D008084  8FA50028   LW A1, 40(SP)
9D008088  0F4049C9   JAL trim
9D00808C  02002025   OR A0, S0, ZERO
9D008090  1000FFA3   BEQ ZERO, ZERO, 0x9D007F20
9D008094  26020008   ADDIU V0, S0, 8
9D008098  54A00032   BNEL A1, ZERO, first_set
9D00809C  00052023   SUBU A0, ZERO, A1
9D0080C0  0F404C2A   JAL lock_bin
9D0080C8  24C40001   ADDIU A0, A2, 1
9D0080CC  000420C0   SLL A0, A0, 3
9D0080D0  00891021   ADDU V0, A0, T1
9D0080D4  8C500000   LW S0, 0(V0)
9D0080D8  2484FFF8   ADDIU A0, A0, -8
9D0080DC  01242021   ADDU A0, T1, A0
9D0080E0  1204FFAE   BEQ S0, A0, 0x9D007F9C
9D0080E4  28C20028   SLTI V0, A2, 40
9D0080E8  14400025   BNE V0, ZERO, 0x9D008180
9D0080EC  26310002   ADDIU S1, S1, 2
9D0080F0  0226882A   SLT S1, S1, A2
9D0080F4  56200005   BNEL S1, ZERO, 0x9D00810C
9D0080F8  8E070004   LW A3, 4(S0)
9D0080FC  2402003F   ADDIU V0, ZERO, 63
9D008100  14C20020   BNE A2, V0, 0x9D008184
9D008104  00C02825   OR A1, A2, ZERO
9D008108  8E070004   LW A3, 4(S0)
9D00810C  8FA50028   LW A1, 40(SP)
9D008110  7C070004   INS A3, ZERO, 0, 1
9D008114  00E54023   SUBU T0, A3, A1
9D008118  0F404871   JAL bin_index
9D00811C  01002025   OR A0, T0, ZERO
9D008120  54C20018   BNEL A2, V0, 0x9D008184
9D008124  00C02825   OR A1, A2, ZERO
9D008128  8E03000C   LW V1, 12(S0)
9D00812C  8E040008   LW A0, 8(S0)
9D008130  02051021   ADDU V0, S0, A1
9D008134  AC43000C   SW V1, 12(V0)
9D008138  AC440008   SW A0, 8(V0)
9D00813C  AC620008   SW V0, 8(V1)
9D008140  8C430008   LW V1, 8(V0)
9D008144  34A50001   ORI A1, A1, 1
9D008148  02073821   ADDU A3, S0, A3
9D00814C  AC62000C   SW V0, 12(V1)
9D008150  AC450000   SW A1, 0(V0)
9D008154  AC480004   SW T0, 4(V0)
9D008158  ACE80000   SW T0, 0(A3)
9D00815C  1000FFC9   BEQ ZERO, ZERO, 0x9D008084
9D008160  AE050004   SW A1, 4(S0)
9D008180  00C02825   OR A1, A2, ZERO
9D008184  0F40431F   JAL unbin
9D008188  02002025   OR A0, S0, ZERO
9D00818C  1000FFBE   BEQ ZERO, ZERO, 0x9D008088
9D008190  8FA50028   LW A1, 40(SP)
9D00C868  10800064   BEQ A0, ZERO, 0x9D00C9FC
9D00C86C  00000000   NOP
9D00C870  8C82FFFC   LW V0, -4(A0)
9D00C874  27BDFFD0   ADDIU SP, SP, -48
9D00C878  AFB2001C   SW S2, 28(SP)
9D00C87C  00409025   OR S2, V0, ZERO
9D00C880  AFB00014   SW S0, 20(SP)
9D00C884  7C120004   INS S2, ZERO, 0, 1
9D00C888  2490FFF8   ADDIU S0, A0, -8
9D00C88C  AFB10018   SW S1, 24(SP)
9D00C890  02128821   ADDU S1, S0, S2
9D00C894  8E230000   LW V1, 0(S1)
9D00C898  AFB40024   SW S4, 36(SP)
9D00C89C  AFBF002C   SW RA, 44(SP)
9D00C8A0  AFB50028   SW S5, 40(SP)
9D00C8A4  AFB30020   SW S3, 32(SP)
9D00C8A8  10430003   BEQ V0, V1, 0x9D00C8B8
9D00C8AC  2414FFFE   ADDIU S4, ZERO, -2
9D00C8B0  A0000000   SB ZERO, 0(ZERO)
9D00C8B8  8E020000   LW V0, 0(S0)
9D00C8C4  30420001   ANDI V0, V0, 1
9D00C8C8  1440000E   BNE V0, ZERO, 0x9D00C904
9D00C8CC  36420001   ORI V0, S2, 1
9D00C8D0  0F404781   JAL alloc_rev
9D00C8D4  02002025   OR A0, S0, ZERO
9D00C8D8  54400042   BNEL V0, ZERO, 0x9D00C9E4
9D00C8DC  8E020000   LW V0, 0(S0)
9D00C8E0  0F400064   JAL alloc_fwd
9D00C8E4  02202025   OR A0, S1, ZERO
9D00C8E8  5040FFF4   BEQL V0, ZERO, 0x9D00C8BC
9D00C8EC  8E020000   LW V0, 0(S0)
9D00C8F0  8E220004   LW V0, 4(S1)
9D00C8F4  02821024   AND V0, S4, V0
9D00C8F8  02429021   ADDU S2, S2, V0
9D00C8FC  1000FFEE   BEQ ZERO, ZERO, 0x9D00C8B8
9D00C900  02228821   ADDU S1, S1, V0
9D00C904  AE020004   SW V0, 4(S0)
9D00C908  02402025   OR A0, S2, ZERO
9D00C90C  0F404871   JAL bin_index
9D00C910  AE220000   SW V0, 0(S1)
9D00C914  00402025   OR A0, V0, ZERO
9D00C918  0F404C2A   JAL lock_bin
9D00C91C  00409825   OR S3, V0, ZERO
9D00C920  8E020000   LW V0, 0(S0)
9D00C924  8E230004   LW V1, 4(S1)
9D00C928  00431024   AND V0, V0, V1
9D00C92C  30420001   ANDI V0, V0, 1
9D00C930  1040FFE7   BEQ V0, ZERO, 0x9D00C8D0
9D00C934  3C158000   LUI S5, -32768
9D00C938  8EA41468   LW A0, 5224(S5)
9D00C93C  8EA5146C   LW A1, 5228(S5)
9D00C940  02603025   OR A2, S3, ZERO
9D00C944  0F404BA1   JAL __lshrdi3
9D00C948  26B41468   ADDIU S4, S5, 5224
9D00C94C  30420001   ANDI V0, V0, 1
9D00C950  54400010   BNEL V0, ZERO, 0x9D00C994
9D00C954  26730001   ADDIU S3, S3, 1
9D00C958  00002825   OR A1, ZERO, ZERO
9D00C95C  02603025   OR A2, S3, ZERO
9D00C960  0F404BB0   JAL __ashldi3
9D00C964  24040001   ADDIU A0, ZERO, 1
9D00C990  26730001   ADDIU S3, S3, 1
9D00C994  001398C0   SLL S3, S3, 3
9D00C998  02939821   ADDU S3, S4, S3
9D00C99C  2662FFF8   ADDIU V0, S3, -8
9D00C9A0  AE120004   SW S2, 4(S0)
9D00C9A4  AE320000   SW S2, 0(S1)
9D00C9A8  AE020008   SW V0, 8(S0)
9D00C9AC  8E620004   LW V0, 4(S3)
9D00C9B0  8FBF002C   LW RA, 44(SP)
9D00C9B4  8FB50028   LW S5, 40(SP)
9D00C9B8  AE02000C   SW V0, 12(S0)
9D00C9BC  AE700004   SW S0, 4(S3)
9D00C9C0  8E02000C   LW V0, 12(S0)
9D00C9C4  8FB40024   LW S4, 36(SP)
9D00C9C8  8FB30020   LW S3, 32(SP)
9D00C9CC  AC500008   SW S0, 8(V0)
9D00C9D0  8FB2001C   LW S2, 28(SP)
9D00C9D4  8FB10018   LW S1, 24(SP)
9D00C9D8  8FB00014   LW S0, 20(SP)
9D00C9DC  03E00008   JR RA
9D00C9E0  27BD0030   ADDIU SP, SP, 48
9D00C9E4  02821024   AND V0, S4, V0
9D00C9E8  02028023   SUBU S0, S0, V0
9D00C9EC  8E020004   LW V0, 4(S0)
9D00C9F0  02821024   AND V0, S4, V0
9D00C9F4  1000FFBA   BEQ ZERO, ZERO, 0x9D00C8E0
9D00C9F8  02429021   ADDU S2, S2, V0
9D00C9FC  03E00008   JR RA
9D00CA00  00000000   NOP
9D010C7C  27BDFFE0   ADDIU SP, SP, -32
9D010C80  AFB20018   SW S2, 24(SP)
9D010C84  AFB10014   SW S1, 20(SP)
9D010C88  8C92000C   LW S2, 12(A0)
9D010C8C  8C910008   LW S1, 8(A0)
9D010C90  AFB00010   SW S0, 16(SP)
9D010C94  AFBF001C   SW RA, 28(SP)
9D010C98  16510013   BNE S2, S1, unbin
9D010C9C  00808025   OR S0, A0, ZERO
9D010CA0  00A03025   OR A2, A1, ZERO
9D010CA4  24040001   ADDIU A0, ZERO, 1
9D010CA8  0F404BB0   JAL __ashldi3
9D010CAC  00002825   OR A1, ZERO, ZERO
9D010CB0  00031827   NOR V1, ZERO, V1
9D010CE8  8E020004   LW V0, 4(S0)
9D010CEC  AE510008   SW S1, 8(S2)
9D010CF0  AE32000C   SW S2, 12(S1)
9D010CF4  34430001   ORI V1, V0, 1
9D010CF8  7C020004   INS V0, ZERO, 0, 1
9D010CFC  AE030004   SW V1, 4(S0)
9D010D00  02028021   ADDU S0, S0, V0
9D010D04  8E020000   LW V0, 0(S0)
9D010D08  8FBF001C   LW RA, 28(SP)
9D010D0C  8FB20018   LW S2, 24(SP)
9D010D10  34420001   ORI V0, V0, 1
9D010D14  AE020000   SW V0, 0(S0)
9D010D18  8FB10014   LW S1, 20(SP)
9D010D1C  8FB00010   LW S0, 16(SP)
9D010D20  03E00008   JR RA
9D010D24  27BD0020   ADDIU SP, SP, 32
9D011E04  8C860000   LW A2, 0(A0)
9D011E08  30C20001   ANDI V0, A2, 1
9D011E0C  10400008   BEQ V0, ZERO, alloc_rev
9D011E10  00803825   OR A3, A0, ZERO
9D011E14  03E00008   JR RA
9D011E18  00001025   OR V0, ZERO, ZERO
9D011E1C  30C20001   ANDI V0, A2, 1
9D011E20  10400005   BEQ V0, ZERO, alloc_rev
9D011E24  00001025   OR V0, ZERO, ZERO
9D011E28  10000011   BEQ ZERO, ZERO, alloc_rev
9D011E2C  8FBF0014   LW RA, 20(SP)
9D011E30  27BDFFE8   ADDIU SP, SP, -24
9D011E34  AFBF0014   SW RA, 20(SP)
9D011E38  0F404871   JAL bin_index
9D011E3C  00C02025   OR A0, A2, ZERO
9D011E40  00402025   OR A0, V0, ZERO
9D011E44  0F404C2A   JAL lock_bin
9D011E48  00404025   OR T0, V0, ZERO
9D011E4C  8CE40000   LW A0, 0(A3)
9D011E50  5486FFF2   BNEL A0, A2, alloc_rev
9D011E54  8CE60000   LW A2, 0(A3)
9D011E58  7C040004   INS A0, ZERO, 0, 1
9D011E5C  01002825   OR A1, T0, ZERO
9D011E60  0F40431F   JAL unbin
9D011E64  00E42023   SUBU A0, A3, A0
9D011E68  24020001   ADDIU V0, ZERO, 1
9D011E6C  8FBF0014   LW RA, 20(SP)
9D011E70  03E00008   JR RA
9D011E74  27BD0018   ADDIU SP, SP, 24
9D0121C4  00042102   SRL A0, A0, 4
9D0121C8  2484FFFF   ADDIU A0, A0, -1
9D0121CC  2C820021   SLTIU V0, A0, 33
9D0121D0  50400003   BEQL V0, ZERO, bin_index
9D0121D4  2C820200   SLTIU V0, A0, 512
9D0121D8  03E00008   JR RA
9D0121DC  00801025   OR V0, A0, ZERO
9D0121E0  10400007   BEQ V0, ZERO, bin_index
9D0121E4  2C831C01   SLTIU V1, A0, 7169
9D0121E8  3C029D01   LUI V0, -25343
9D0121EC  244224D8   ADDIU V0, V0, 9432
9D0121F0  000420C2   SRL A0, A0, 3
9D0121F4  00822021   ADDU A0, A0, V0
9D0121F8  03E00008   JR RA
9D0121FC  9082FFFC   LBU V0, -4(A0)
9D012200  10600007   BEQ V1, ZERO, bin_index
9D012204  2402003F   ADDIU V0, ZERO, 63
9D012208  3C029D01   LUI V0, -25343
9D01220C  244224D8   ADDIU V0, V0, 9432
9D012210  000421C2   SRL A0, A0, 7
9D012214  00822021   ADDU A0, A0, V0
9D012218  9082FFFC   LBU V0, -4(A0)
9D01221C  24420010   ADDIU V0, V0, 16
9D012220  03E00008   JR RA
9D012224  00000000   NOP
9D0126CC  3C038000   LUI V1, -32768
9D0126D0  8C662154   LW A2, 8532(V1)
9D0126D4  8C820000   LW V0, 0(A0)
9D0126D8  3C037FFF   LUI V1, 32767
9D0126DC  3463FFEF   ORI V1, V1, -17
9D0126E0  2445FFFF   ADDIU A1, V0, -1
9D0126E4  00661823   SUBU V1, V1, A2
9D0126E8  0065182B   SLTU V1, V1, A1
9D0126EC  5060000B   BEQL V1, ZERO, adjust_size
9D0126F0  24420017   ADDIU V0, V0, 23
9D0126F4  50400006   BEQL V0, ZERO, adjust_size
9D0126F8  24020010   ADDIU V0, ZERO, 16
9D0126FC  3C028000   LUI V0, -32768
9D012700  2403000C   ADDIU V1, ZERO, 12
9D012704  AC432528   SW V1, 9512(V0)
9D012708  03E00008   JR RA
9D01270C  2402FFFF   ADDIU V0, ZERO, -1
9D012710  AC820000   SW V0, 0(A0)
9D012714  03E00008   JR RA
9D012718  00001025   OR V0, ZERO, ZERO
9D01271C  1000FFFC   BEQ ZERO, ZERO, adjust_size
9D012720  7C021804   INS V0, ZERO, 0, 4
9D012724  8C820004   LW V0, 4(A0)
9D012728  7C020004   INS V0, ZERO, 0, 1
9D01272C  00451823   SUBU V1, V0, A1
9D012730  2C660011   SLTIU A2, V1, 17
9D012734  14C0000F   BNE A2, ZERO, trim
9D012738  00853021   ADDU A2, A0, A1
9D01273C  27BDFFE8   ADDIU SP, SP, -24
9D012740  34A50001   ORI A1, A1, 1
9D012744  34630001   ORI V1, V1, 1
9D012748  00821021   ADDU V0, A0, V0
9D01274C  AFBF0014   SW RA, 20(SP)
9D012750  ACC50000   SW A1, 0(A2)
9D012754  ACC30004   SW V1, 4(A2)
9D012758  AC430000   SW V1, 0(V0)
9D01275C  AC850004   SW A1, 4(A0)
9D012760  0F40321A   JAL free
9D012764  24C40008   ADDIU A0, A2, 8
9D012768  8FBF0014   LW RA, 20(SP)
9D01276C  03E00008   JR RA
9D012770  27BD0018   ADDIU SP, SP, 24
9D012774  03E00008   JR RA
9D012778  00000000   NOP
9D0130A8  24840001   ADDIU A0, A0, 1
9D0130AC  000410C0   SLL V0, A0, 3
9D0130B0  3C048000   LUI A0, -32768
9D0130B4  24841468   ADDIU A0, A0, 5224
9D0130B8  00441821   ADDU V1, V0, A0
9D0130BC  8C650000   LW A1, 0(V1)
9D0130C0  14A00004   BNE A1, ZERO, lock_bin
9D0130C4  2442FFF8   ADDIU V0, V0, -8
9D0130C8  00822021   ADDU A0, A0, V0
9D0130CC  AC640004   SW A0, 4(V1)
9D0130D0  AC640000   SW A0, 0(V1)
9D0130D4  03E00008   JR RA
9D0130D8  00000000   NOP
---  /data01/build/bamboo/xml-data/build-dir/M32DEV-GMB34-JOB1/src/xc32-musl-stdlib/musl/musl-1.1.18/src/locale/langinfo.c
-----*  Optimizer-Generated Procedural Abstractions  *----------------------------------------------
00000000  00000000   NOP
00000008  00000000   NOP
00000010  00000000   NOP
00000018  00000000   NOP
9D00F9D8  2406000E   ADDIU A2, ZERO, 14
9D00F9DC  00041403   SRA V0, A0, 16
9D00F9E0  1086002F   BEQ A0, A2, nl_langinfo_l
9D00F9E4  3083FFFF   ANDI V1, A0, -1
9D00F9E8  3406FFFF   ORI A2, ZERO, -1
9D00F9EC  5466000C   BNEL V1, A2, nl_langinfo_l
9D00F9F0  24050002   ADDIU A1, ZERO, 2
9D00F9F4  28430006   SLTI V1, V0, 6
9D00F9F8  5060002E   BEQL V1, ZERO, nl_langinfo_l
9D00F9FC  3C029D01   LUI V0, -25343
9D00FA00  00021080   SLL V0, V0, 2
9D00FA04  00A21021   ADDU V0, A1, V0
9D00FA08  8C430000   LW V1, 0(V0)
9D00FA0C  50600027   BEQL V1, ZERO, nl_langinfo_l
9D00FA10  3C029D01   LUI V0, -25343
9D00FA14  8C420000   LW V0, 0(V0)
9D00FA18  03E00008   JR RA
9D00FA1C  24420008   ADDIU V0, V0, 8
9D00FA20  1045000E   BEQ V0, A1, nl_langinfo_l
9D00FA24  24050005   ADDIU A1, ZERO, 5
9D00FA28  10450012   BEQ V0, A1, nl_langinfo_l
9D00FA2C  24050001   ADDIU A1, ZERO, 1
9D00FA30  14450020   BNE V0, A1, nl_langinfo_l
9D00FA34  3C029D01   LUI V0, -25343
9D00FA38  3084FFFE   ANDI A0, A0, -2
9D00FA3C  1480001D   BNE A0, ZERO, nl_langinfo_l
9D00FA40  00000000   NOP
9D00FA44  3C029D01   LUI V0, -25343
9D00FA48  2442DC4C   ADDIU V0, V0, -9140
9D00FA4C  54600010   BNEL V1, ZERO, nl_langinfo_l
9D00FA50  80440000   LB A0, 0(V0)
9D00FA54  03E00008   JR RA
9D00FA58  00000000   NOP
9D00FA5C  28620032   SLTI V0, V1, 50
9D00FA60  50400014   BEQL V0, ZERO, nl_langinfo_l
9D00FA64  3C029D01   LUI V0, -25343
9D00FA68  3C029D01   LUI V0, -25343
9D00FA6C  1000FFF7   BEQ ZERO, ZERO, nl_langinfo_l
9D00FA70  2442DC64   ADDIU V0, V0, -9116
9D00FA74  3084FFFC   ANDI A0, A0, -4
9D00FA78  5480000E   BNEL A0, ZERO, nl_langinfo_l
9D00FA7C  3C029D01   LUI V0, -25343
9D00FA80  3C029D01   LUI V0, -25343
9D00FA84  1000FFF1   BEQ ZERO, ZERO, nl_langinfo_l
9D00FA88  2442DC50   ADDIU V0, V0, -9136
9D00FA8C  80440000   LB A0, 0(V0)
9D00FA90  1480FFFE   BNE A0, ZERO, nl_langinfo_l
9D00FA94  24420001   ADDIU V0, V0, 1
9D00FA98  1000FFEC   BEQ ZERO, ZERO, nl_langinfo_l
9D00FA9C  2463FFFF   ADDIU V1, V1, -1
9D00FAA0  3C029D01   LUI V0, -25343
9D00FAA4  03E00008   JR RA
9D00FAA8  24423CFC   ADDIU V0, V0, 15612
9D00FAAC  03E00008   JR RA
9D00FAB0  24423D04   ADDIU V0, V0, 15620
9D00FAB4  03E00008   JR RA
9D00FAB8  24423CF8   ADDIU V0, V0, 15608
---  /data01/build/bamboo/xml-data/build-dir/M32DEV-GMB34-JOB1/src/xc32-musl-stdlib/musl/musl-1.1.18/src/internal/shgetc.c
-----*  Optimizer-Generated Procedural Abstractions  *----------------------------------------------
9D00E898  27BDFFE8   ADDIU SP, SP, -24
9D00E89C  AFB00010   SW S0, 16(SP)
9D00E8A0  00808025   OR S0, A0, ZERO
9D00E8A4  8E030054   LW V1, 84(S0)
9D00E8A8  8C840050   LW A0, 80(A0)
9D00E8AC  00831025   OR V0, A0, V1
9D00E8B0  10400011   BEQ V0, ZERO, 0x9D00E8F8
9D00E8B4  AFBF0014   SW RA, 20(SP)
9D00E8B8  8E02005C   LW V0, 92(S0)
9D00E8BC  0043282A   SLT A1, V0, V1
9D00E8C0  14A0000D   BNE A1, ZERO, 0x9D00E8F8
9D00E8C4  00000000   NOP
9D00E8C8  54430006   BNEL V0, V1, 0x9D00E8E4
9D00E8CC  AE00004C   SW ZERO, 76(S0)
9D00E8D0  8E020058   LW V0, 88(S0)
9D00E8D4  0044102B   SLTU V0, V0, A0
9D00E8D8  14400007   BNE V0, ZERO, 0x9D00E8F8
9D00E8DC  00000000   NOP
9D00E8E0  AE00004C   SW ZERO, 76(S0)
9D00E8E4  2402FFFF   ADDIU V0, ZERO, -1
9D00E8E8  8FBF0014   LW RA, 20(SP)
9D00E8EC  8FB00010   LW S0, 16(SP)
9D00E8F0  03E00008   JR RA
9D00E8F4  27BD0018   ADDIU SP, SP, 24
9D00E8F8  0F404A09   JAL __uflow
9D00E8FC  02002025   OR A0, S0, ZERO
9D00E900  0442FFF8   BLTZL V0, 0x9D00E8E4
9D00E904  AE00004C   SW ZERO, 76(S0)
9D00E908  8E040050   LW A0, 80(S0)
9D00E90C  8E060054   LW A2, 84(S0)
9D00E910  8E030040   LW V1, 64(S0)
9D00E914  8E07003C   LW A3, 60(S0)
9D00E918  00864025   OR T0, A0, A2
9D00E91C  11000014   BEQ T0, ZERO, 0x9D00E970
9D00E920  00602825   OR A1, V1, ZERO
9D00E924  8E090058   LW T1, 88(S0)
9D00E928  8E05005C   LW A1, 92(S0)
9D00E92C  00894023   SUBU T0, A0, T1
9D00E930  0088502B   SLTU T2, A0, T0
9D00E934  00C52823   SUBU A1, A2, A1
9D00E938  00673023   SUBU A2, V1, A3
9D00E93C  00AA2823   SUBU A1, A1, T2
9D00E940  000657C3   SRA T2, A2, 31
9D00E944  0145582A   SLT T3, T2, A1
9D00E948  55600009   BNEL T3, ZERO, 0x9D00E970
9D00E94C  00602825   OR A1, V1, ZERO
9D00E950  54AA0005   BNEL A1, T2, 0x9D00E968
9D00E954  2484FFFF   ADDIU A0, A0, -1
9D00E958  00C8402B   SLTU T0, A2, T0
9D00E95C  15000004   BNE T0, ZERO, 0x9D00E970
9D00E960  00602825   OR A1, V1, ZERO
9D00E964  2484FFFF   ADDIU A0, A0, -1
9D00E968  00892023   SUBU A0, A0, T1
9D00E96C  00E42821   ADDU A1, A3, A0
9D00E970  1060000C   BEQ V1, ZERO, 0x9D00E9A4
9D00E974  AE05004C   SW A1, 76(S0)
9D00E978  8E040058   LW A0, 88(S0)
9D00E97C  8E05005C   LW A1, 92(S0)
9D00E980  00671823   SUBU V1, V1, A3
9D00E984  24630001   ADDIU V1, V1, 1
9D00E988  000337C3   SRA A2, V1, 31
9D00E98C  00831821   ADDU V1, A0, V1
9D00E990  0064202B   SLTU A0, V1, A0
9D00E994  00A62821   ADDU A1, A1, A2
9D00E998  00852021   ADDU A0, A0, A1
9D00E99C  AE030058   SW V1, 88(S0)
9D00E9A0  AE04005C   SW A0, 92(S0)
9D00E9A4  90E3FFFF   LBU V1, -1(A3)
9D00E9A8  5462FFCF   BNEL V1, V0, 0x9D00E8E8
9D00E9AC  A0E2FFFF   SB V0, -1(A3)
9D00E9B0  1000FFCE   BEQ ZERO, ZERO, 0x9D00E8EC
9D00E9B4  8FBF0014   LW RA, 20(SP)
9D00E9B8  27BDFFD0   ADDIU SP, SP, -48
9D012964  8C830040   LW V1, 64(A0)
9D012968  8C88003C   LW T0, 60(A0)
9D01296C  00C74825   OR T1, A2, A3
9D012970  AC860050   SW A2, 80(A0)
9D012974  00681023   SUBU V0, V1, T0
9D012978  00022FC3   SRA A1, V0, 31
9D01297C  AC870054   SW A3, 84(A0)
9D012980  AC820058   SW V0, 88(A0)
9D012984  11200008   BEQ T1, ZERO, 0x9D0129A8
9D012988  AC85005C   SW A1, 92(A0)
9D01298C  00E5482A   SLT T1, A3, A1
9D012990  55200005   BNEL T1, ZERO, 0x9D0129A8
9D012994  01061821   ADDU V1, T0, A2
9D012998  14A70003   BNE A1, A3, 0x9D0129A8
9D01299C  00C2102B   SLTU V0, A2, V0
9D0129A0  54400001   BNEL V0, ZERO, 0x9D0129A8
9D0129A4  01061821   ADDU V1, T0, A2
9D0129A8  03E00008   JR RA
9D0129AC  AC83004C   SW V1, 76(A0)
---  /data01/build/bamboo/xml-data/build-dir/M32DEV-GMB34-JOB1/src/xc32-musl-stdlib/musl/musl-1.1.18/src/internal/intscan.c
-----*  Optimizer-Generated Procedural Abstractions  *----------------------------------------------
9D002940  27BDFFB8   ADDIU SP, SP, -72
9D002944  2CA20025   SLTIU V0, A1, 37
9D002948  AFB3002C   SW S3, 44(SP)
9D00294C  AFB20028   SW S2, 40(SP)
9D002950  AFBF0044   SW RA, 68(SP)
9D002954  AFBE0040   SW FP, 64(SP)
9D002958  AFB7003C   SW S7, 60(SP)
9D00295C  AFB60038   SW S6, 56(SP)
9D002960  AFB50034   SW S5, 52(SP)
9D002964  AFB40030   SW S4, 48(SP)
9D002968  AFB10024   SW S1, 36(SP)
9D00296C  AFB00020   SW S0, 32(SP)
9D002970  8FB30058   LW S3, 88(SP)
9D002974  10400007   BEQ V0, ZERO, 0x9D002994
9D002978  8FB2005C   LW S2, 92(SP)
9D00297C  24020001   ADDIU V0, ZERO, 1
9D002980  00808025   OR S0, A0, ZERO
9D002984  00A0F025   OR FP, A1, ZERO
9D002988  00C0A025   OR S4, A2, ZERO
9D00298C  14A20005   BNE A1, V0, 0x9D0029A4
9D002990  24110020   ADDIU S1, ZERO, 32
9D002994  3C028000   LUI V0, -32768
9D002998  24030016   ADDIU V1, ZERO, 22
9D00299C  1000004F   BEQ ZERO, ZERO, 0x9D002ADC
9D0029A0  AC432528   SW V1, 9512(V0)
9D0029A4  8E02003C   LW V0, 60(S0)
9D0029A8  8E03004C   LW V1, 76(S0)
9D0029AC  0043182B   SLTU V1, V0, V1
9D0029B0  10600020   BEQ V1, ZERO, 0x9D002A34
9D0029B4  24430001   ADDIU V1, V0, 1
9D0029B8  AE03003C   SW V1, 60(S0)
9D0029BC  90480000   LBU T0, 0(V0)
9D0029D4  2502FFD5   ADDIU V0, T0, -43
9D0029D8  7C020844   INS V0, ZERO, 1, 1
9D0029DC  1440000B   BNE V0, ZERO, 0x9D002A0C
9D0029E0  0000A825   OR S5, ZERO, ZERO
9D0029E4  8E02003C   LW V0, 60(S0)
9D0029E8  8E03004C   LW V1, 76(S0)
9D0029EC  3915002D   XORI S5, T0, 45
9D0029F0  2EB50001   SLTIU S5, S5, 1
9D0029F4  0043182B   SLTU V1, V0, V1
9D0029F8  10600012   BEQ V1, ZERO, 0x9D002A44
9D0029FC  0015A823   SUBU S5, ZERO, S5
9D002A00  24430001   ADDIU V1, V0, 1
9D002A04  AE03003C   SW V1, 60(S0)
9D002A08  90480000   LBU T0, 0(V0)
9D002A0C  13C00011   BEQ FP, ZERO, 0x9D002A54
9D002A10  8E03004C   LW V1, 76(S0)
9D002A14  24020010   ADDIU V0, ZERO, 16
9D002A18  17C2005B   BNE FP, V0, 0x9D002B88
9D002A1C  3C029D01   LUI V0, -25343
9D002A20  24020030   ADDIU V0, ZERO, 48
9D002A24  5102000F   BEQL T0, V0, 0x9D002A64
9D002A28  8E02003C   LW V0, 60(S0)
9D002A2C  10000056   BEQ ZERO, ZERO, 0x9D002B88
9D002A30  3C029D01   LUI V0, -25343
9D002A34  0F403A26   JAL __shgetc
9D002A38  02002025   OR A0, S0, ZERO
9D002A3C  1000FFE0   BEQ ZERO, ZERO, __intscan::__isspace
9D002A40  00404025   OR T0, V0, ZERO
9D002A44  0F403A26   JAL __shgetc
9D002A48  02002025   OR A0, S0, ZERO
9D002A4C  1000FFEF   BEQ ZERO, ZERO, 0x9D002A0C
9D002A50  00404025   OR T0, V0, ZERO
9D002A54  24020030   ADDIU V0, ZERO, 48
9D002A58  5502004A   BNEL T0, V0, 0x9D002B84
9D002A5C  241E000A   ADDIU FP, ZERO, 10
9D002A60  8E02003C   LW V0, 60(S0)
9D002A64  0043182B   SLTU V1, V0, V1
9D002A68  1060002C   BEQ V1, ZERO, 0x9D002B1C
9D002A6C  24430001   ADDIU V1, V0, 1
9D002A70  AE03003C   SW V1, 60(S0)
9D002A74  90480000   LBU T0, 0(V0)
9D002A78  35020020   ORI V0, T0, 32
9D002A7C  24030078   ADDIU V1, ZERO, 120
9D002A80  14430036   BNE V0, V1, 0x9D002B5C
9D002A84  00000000   NOP
9D002A88  8E02003C   LW V0, 60(S0)
9D002A8C  8E03004C   LW V1, 76(S0)
9D002A90  0043182B   SLTU V1, V0, V1
9D002A94  10600025   BEQ V1, ZERO, 0x9D002B2C
9D002A98  24430001   ADDIU V1, V0, 1
9D002A9C  AE03003C   SW V1, 60(S0)
9D002AA0  90480000   LBU T0, 0(V0)
9D002AA4  3C029D01   LUI V0, -25343
9D002AA8  2442EBF5   ADDIU V0, V0, -5131
9D002AAC  01021021   ADDU V0, T0, V0
9D002AB0  90420000   LBU V0, 0(V0)
9D002AB4  2C420010   SLTIU V0, V0, 16
9D002AB8  144000B7   BNE V0, ZERO, 0x9D002D98
9D002ABC  241E0010   ADDIU FP, ZERO, 16
9D002AC0  8E02004C   LW V0, 76(S0)
9D002AC4  1040015C   BEQ V0, ZERO, 0x9D003038
9D002AC8  00000000   NOP
9D002ACC  1280001B   BEQ S4, ZERO, 0x9D002B3C
9D002AD0  8E02003C   LW V0, 60(S0)
9D002AD4  2442FFFE   ADDIU V0, V0, -2
9D002AD8  AE02003C   SW V0, 60(S0)
9D002ADC  00008825   OR S1, ZERO, ZERO
9D002AE0  0000B825   OR S7, ZERO, ZERO
9D002AE4  8FBF0044   LW RA, 68(SP)
9D002AE8  02201025   OR V0, S1, ZERO
9D002AEC  02E01825   OR V1, S7, ZERO
9D002AF0  8FBE0040   LW FP, 64(SP)
9D002AF4  8FB7003C   LW S7, 60(SP)
9D002AF8  8FB60038   LW S6, 56(SP)
9D002AFC  8FB50034   LW S5, 52(SP)
9D002B00  8FB40030   LW S4, 48(SP)
9D002B04  8FB3002C   LW S3, 44(SP)
9D002B08  8FB20028   LW S2, 40(SP)
9D002B0C  8FB10024   LW S1, 36(SP)
9D002B10  8FB00020   LW S0, 32(SP)
9D002B14  03E00008   JR RA
9D002B18  27BD0048   ADDIU SP, SP, 72
9D002B1C  0F403A26   JAL __shgetc
9D002B20  02002025   OR A0, S0, ZERO
9D002B24  1000FFD4   BEQ ZERO, ZERO, 0x9D002A78
9D002B28  00404025   OR T0, V0, ZERO
9D002B2C  0F403A26   JAL __shgetc
9D002B30  02002025   OR A0, S0, ZERO
9D002B34  1000FFDB   BEQ ZERO, ZERO, 0x9D002AA4
9D002B38  00404025   OR T0, V0, ZERO
9D002B3C  2442FFFF   ADDIU V0, V0, -1
9D002B40  AE02003C   SW V0, 60(S0)
9D002B44  00003025   OR A2, ZERO, ZERO
9D002B48  00003825   OR A3, ZERO, ZERO
9D002B4C  0F404A59   JAL __shlim
9D002B50  02002025   OR A0, S0, ZERO
9D002B54  1000FFE2   BEQ ZERO, ZERO, 0x9D002AE0
9D002B58  00008825   OR S1, ZERO, ZERO
9D002B5C  53C0008E   BEQL FP, ZERO, 0x9D002D98
9D002B60  241E0008   ADDIU FP, ZERO, 8
9D002B64  2402000A   ADDIU V0, ZERO, 10
9D002B68  57C2008C   BNEL FP, V0, 0x9D002D9C
9D002B6C  27D1FFFF   ADDIU S1, FP, -1
9D002B70  3C141999   LUI S4, 6553
9D002B74  00008825   OR S1, ZERO, ZERO
9D002B78  36949999   ORI S4, S4, -26215
9D002B7C  1000001A   BEQ ZERO, ZERO, 0x9D002BE8
9D002B80  2416000A   ADDIU S6, ZERO, 10
9D002B84  3C029D01   LUI V0, -25343
9D002B88  2442EBF5   ADDIU V0, V0, -5131
9D002B8C  01021021   ADDU V0, T0, V0
9D002B90  90420000   LBU V0, 0(V0)
9D002B94  005E102B   SLTU V0, V0, FP
9D002B98  1440FFF3   BNE V0, ZERO, 0x9D002B68
9D002B9C  2402000A   ADDIU V0, ZERO, 10
9D002BA0  10600004   BEQ V1, ZERO, 0x9D002BB4
9D002BA4  00003025   OR A2, ZERO, ZERO
9D002BA8  8E02003C   LW V0, 60(S0)
9D002BAC  2442FFFF   ADDIU V0, V0, -1
9D002BB0  AE02003C   SW V0, 60(S0)
9D002BB4  00003825   OR A3, ZERO, ZERO
9D002BB8  0F404A59   JAL __shlim
9D002BBC  02002025   OR A0, S0, ZERO
9D002BC0  1000FF75   BEQ ZERO, ZERO, 0x9D002998
9D002BC4  3C028000   LUI V0, -32768
9D002BC8  00688821   ADDU S1, V1, T0
9D002BCC  8E03003C   LW V1, 60(S0)
9D002BD0  0062102B   SLTU V0, V1, V0
9D002BD4  1040005C   BEQ V0, ZERO, 0x9D002D48
9D002BD8  2631FFD0   ADDIU S1, S1, -48
9D002BDC  24620001   ADDIU V0, V1, 1
9D002BE0  AE02003C   SW V0, 60(S0)
9D002BE4  90680000   LBU T0, 0(V1)
9D002BE8  2503FFD0   ADDIU V1, T0, -48
9D002BEC  2C63000A   SLTIU V1, V1, 10
9D002BF0  10600004   BEQ V1, ZERO, 0x9D002C04
9D002BF4  8E02004C   LW V0, 76(S0)
9D002BF8  0234182B   SLTU V1, S1, S4
9D002BFC  1460FFF2   BNE V1, ZERO, 0x9D002BC8
9D002C00  72361802   MUL V1, S1, S6
9D002C04  3C141999   LUI S4, 6553
9D002C08  3694999A   ORI S4, S4, -26214
9D002C0C  3C169999   LUI S6, -26215
9D002C10  0000B825   OR S7, ZERO, ZERO
9D002C14  2689FFFF   ADDIU T1, S4, -1
9D002C18  36D6999A   ORI S6, S6, -26214
9D002C1C  2502FFD0   ADDIU V0, T0, -48
9D002C20  2C43000A   SLTIU V1, V0, 10
9D002C24  1060002E   BEQ V1, ZERO, 0x9D002CE0
9D002C28  8E06004C   LW A2, 76(S0)
9D002C2C  02F4182B   SLTU V1, S7, S4
9D002C30  50600012   BEQL V1, ZERO, 0x9D002C7C
9D002C34  3C149D01   LUI S4, -25343
9D002C38  16E90004   BNE S7, T1, 0x9D002C4C
9D002C3C  2403000A   ADDIU V1, ZERO, 10
9D002C40  0236182B   SLTU V1, S1, S6
9D002C44  1060000C   BEQ V1, ZERO, 0x9D002C78
9D002C48  2403000A   ADDIU V1, ZERO, 10
9D002C4C  00710019   MULTU 0, V1, S1
9D002C50  240AFFFF   ADDIU T2, ZERO, -1
9D002C54  00002810   MFHI A1
9D002C58  00002012   MFLO A0
9D002C5C  70773802   MUL A3, V1, S7
9D002C60  00E52821   ADDU A1, A3, A1
9D002C64  14AA003C   BNE A1, T2, 0x9D002D58
9D002C68  00021827   NOR V1, ZERO, V0
9D002C6C  0064182B   SLTU V1, V1, A0
9D002C70  5060003A   BEQL V1, ZERO, 0x9D002D5C
9D002C74  00448821   ADDU S1, V0, A0
9D002C78  3C149D01   LUI S4, -25343
9D002C7C  2694EBF5   ADDIU S4, S4, -5131
9D002C80  01144021   ADDU T0, T0, S4
9D002C84  91020000   LBU V0, 0(T0)
9D002C88  005E102B   SLTU V0, V0, FP
9D002C8C  50400015   BEQL V0, ZERO, 0x9D002CE4
9D002C90  8E02004C   LW V0, 76(S0)
9D002C94  8E02003C   LW V0, 60(S0)
9D002C98  8E03004C   LW V1, 76(S0)
9D002C9C  0043182B   SLTU V1, V0, V1
9D002CA0  106000CD   BEQ V1, ZERO, 0x9D002FD8
9D002CA4  24430001   ADDIU V1, V0, 1
9D002CA8  AE03003C   SW V1, 60(S0)
9D002CAC  90420000   LBU V0, 0(V0)
9D002CB0  02821021   ADDU V0, S4, V0
9D002CB4  90420000   LBU V0, 0(V0)
9D002CB8  005E102B   SLTU V0, V0, FP
9D002CBC  5440FFF6   BNEL V0, ZERO, 0x9D002C98
9D002CC0  8E02003C   LW V0, 60(S0)
9D002CC4  3C028000   LUI V0, -32768
9D002CC8  24030022   ADDIU V1, ZERO, 34
9D002CCC  AC432528   SW V1, 9512(V0)
9D002CD0  32620001   ANDI V0, S3, 1
9D002CD4  02608825   OR S1, S3, ZERO
9D002CD8  0240B825   OR S7, S2, ZERO
9D002CDC  0002A80B   MOVN S5, ZERO, V0
9D002CE0  8E02004C   LW V0, 76(S0)
9D002CE4  10400005   BEQ V0, ZERO, 0x9D002CFC
9D002CE8  02F2102B   SLTU V0, S7, S2
9D002CEC  8E02003C   LW V0, 60(S0)
9D002CF0  2442FFFF   ADDIU V0, V0, -1
9D002CF4  AE02003C   SW V0, 60(S0)
9D002CF8  02F2102B   SLTU V0, S7, S2
9D002CFC  144000C7   BNE V0, ZERO, 0x9D00301C
9D002D00  2402FFFF   ADDIU V0, ZERO, -1
9D002D04  16570005   BNE S2, S7, 0x9D002D1C
9D002D08  32620001   ANDI V0, S3, 1
9D002D0C  0233102B   SLTU V0, S1, S3
9D002D10  144000C2   BNE V0, ZERO, 0x9D00301C
9D002D14  2402FFFF   ADDIU V0, ZERO, -1
9D002D18  32620001   ANDI V0, S3, 1
9D002D1C  144000B2   BNE V0, ZERO, 0x9D002FE8
9D002D20  0257102B   SLTU V0, S2, S7
9D002D24  16A000B0   BNE S5, ZERO, 0x9D002FE8
9D002D28  24030022   ADDIU V1, ZERO, 34
9D002D2C  2671FFFF   ADDIU S1, S3, -1
9D002D30  3C028000   LUI V0, -32768
9D002D34  0233982B   SLTU S3, S1, S3
9D002D38  2652FFFF   ADDIU S2, S2, -1
9D002D3C  AC432528   SW V1, 9512(V0)
9D002D40  1000FF68   BEQ ZERO, ZERO, 0x9D002AE4
9D002D44  0272B821   ADDU S7, S3, S2
9D002D48  0F403A26   JAL __shgetc
9D002D4C  02002025   OR A0, S0, ZERO
9D002D50  1000FFA5   BEQ ZERO, ZERO, 0x9D002BE8
9D002D54  00404025   OR T0, V0, ZERO
9D002D58  00448821   ADDU S1, V0, A0
9D002D5C  8E02003C   LW V0, 60(S0)
9D002D60  0224382B   SLTU A3, S1, A0
9D002D64  0046302B   SLTU A2, V0, A2
9D002D68  10C00005   BEQ A2, ZERO, 0x9D002D80
9D002D6C  00E5B821   ADDU S7, A3, A1
9D002D70  24430001   ADDIU V1, V0, 1
9D002D74  AE03003C   SW V1, 60(S0)
9D002D78  1000FFA8   BEQ ZERO, ZERO, 0x9D002C1C
9D002D7C  90480000   LBU T0, 0(V0)
9D002D80  0F403A26   JAL __shgetc
9D002D84  02002025   OR A0, S0, ZERO
9D002D88  00404025   OR T0, V0, ZERO
9D002D8C  3C021999   LUI V0, 6553
9D002D90  1000FFA2   BEQ ZERO, ZERO, 0x9D002C1C
9D002D94  34499999   ORI T1, V0, -26215
9D002D98  27D1FFFF   ADDIU S1, FP, -1
9D002D9C  3C149D01   LUI S4, -25343
9D002DA0  023E8824   AND S1, S1, FP
9D002DA4  16200084   BNE S1, ZERO, 0x9D002FB8
9D002DA8  2694EBF5   ADDIU S4, S4, -5131
9D002DAC  24020017   ADDIU V0, ZERO, 23
9D002DB0  73C21002   MUL V0, FP, V0
9D002DB4  3C039D01   LUI V1, -25343
9D002DB8  2463EBE8   ADDIU V1, V1, -5144
9D002DBC  3C160800   LUI S6, 2048
9D002DC0  7C421140   EXT V0, V0, 5, 3
9D002DC4  00431021   ADDU V0, V0, V1
9D002DC8  80420000   LB V0, 0(V0)
9D002DCC  AFA20010   SW V0, 16(SP)
9D002DD0  02881021   ADDU V0, S4, T0
9D002DD4  90440000   LBU A0, 0(V0)
9D002DD8  009E102B   SLTU V0, A0, FP
9D002DDC  10400004   BEQ V0, ZERO, 0x9D002DF0
9D002DE0  8E03004C   LW V1, 76(S0)
9D002DE4  0236102B   SLTU V0, S1, S6
9D002DE8  14400028   BNE V0, ZERO, 0x9D002E8C
9D002DEC  8FA20010   LW V0, 16(SP)
9D002DF0  8FA60010   LW A2, 16(SP)
9D002DF4  2404FFFF   ADDIU A0, ZERO, -1
9D002DF8  2405FFFF   ADDIU A1, ZERO, -1
9D002DFC  0F404BA1   JAL __lshrdi3
9D002E00  AFA80018   SW T0, 24(SP)
9D002E04  8FA80018   LW T0, 24(SP)
9D002E08  0000B825   OR S7, ZERO, ZERO
9D002E0C  AFA20014   SW V0, 20(SP)
9D002E10  0060B025   OR S6, V1, ZERO
9D002E14  02881021   ADDU V0, S4, T0
9D002E18  904B0000   LBU T3, 0(V0)
9D002E1C  017E102B   SLTU V0, T3, FP
9D002E20  1040FF95   BEQ V0, ZERO, 0x9D002C78
9D002E24  8E0A004C   LW T2, 76(S0)
9D002E28  02D7102B   SLTU V0, S6, S7
9D002E2C  5440FF93   BNEL V0, ZERO, 0x9D002C7C
9D002E30  3C149D01   LUI S4, -25343
9D002E34  16F60005   BNE S7, S6, 0x9D002E4C
9D002E38  8FA60010   LW A2, 16(SP)
9D002E3C  8FA20014   LW V0, 20(SP)
9D002E40  0051102B   SLTU V0, V0, S1
9D002E44  5440FF8D   BNEL V0, ZERO, 0x9D002C7C
9D002E48  3C149D01   LUI S4, -25343
9D002E4C  02202025   OR A0, S1, ZERO
9D002E50  02E02825   OR A1, S7, ZERO
9D002E54  AFAA001C   SW T2, 28(SP)
9D002E58  0F404BB0   JAL __ashldi3
9D002E5C  AFAB0018   SW T3, 24(SP)
9D002E60  8FAB0018   LW T3, 24(SP)
9D002E64  8FAA001C   LW T2, 28(SP)
9D002E68  01628825   OR S1, T3, V0
9D002E6C  8E02003C   LW V0, 60(S0)
9D002E70  004A502B   SLTU T2, V0, T2
9D002E74  11400012   BEQ T2, ZERO, 0x9D002EC0
9D002E78  0060B825   OR S7, V1, ZERO
9D002E7C  24430001   ADDIU V1, V0, 1
9D002E80  AE03003C   SW V1, 60(S0)
9D002E84  1000FFE3   BEQ ZERO, ZERO, 0x9D002E14
9D002E88  90480000   LBU T0, 0(V0)
9D002E8C  00518804   SLLV S1, S1, V0
9D002E90  8E02003C   LW V0, 60(S0)
9D002E94  0043182B   SLTU V1, V0, V1
9D002E98  10600005   BEQ V1, ZERO, 0x9D002EB0
9D002E9C  02248825   OR S1, S1, A0
9D002EA0  24430001   ADDIU V1, V0, 1
9D002EA4  AE03003C   SW V1, 60(S0)
9D002EA8  1000FFC9   BEQ ZERO, ZERO, 0x9D002DD0
9D002EAC  90480000   LBU T0, 0(V0)
9D002EB0  0F403A26   JAL __shgetc
9D002EB4  02002025   OR A0, S0, ZERO
9D002EB8  1000FFC5   BEQ ZERO, ZERO, 0x9D002DD0
9D002EBC  00404025   OR T0, V0, ZERO
9D002EC0  0F403A26   JAL __shgetc
9D002EC4  02002025   OR A0, S0, ZERO
9D002EC8  1000FFD2   BEQ ZERO, ZERO, 0x9D002E14
9D002ECC  00404025   OR T0, V0, ZERO
9D002ED0  00838821   ADDU S1, A0, V1
9D002ED4  8E03003C   LW V1, 60(S0)
9D002ED8  0062102B   SLTU V0, V1, V0
9D002EDC  10400032   BEQ V0, ZERO, 0x9D002FA8
9D002EE0  00000000   NOP
9D002EE4  24620001   ADDIU V0, V1, 1
9D002EE8  AE02003C   SW V0, 60(S0)
9D002EEC  90680000   LBU T0, 0(V1)
9D002EF0  02881021   ADDU V0, S4, T0
9D002EF4  90430000   LBU V1, 0(V0)
9D002EF8  007E202B   SLTU A0, V1, FP
9D002EFC  10800004   BEQ A0, ZERO, 0x9D002F10
9D002F00  8E02004C   LW V0, 76(S0)
9D002F04  0236202B   SLTU A0, S1, S6
9D002F08  1480FFF1   BNE A0, ZERO, 0x9D002ED0
9D002F0C  73D12002   MUL A0, FP, S1
9D002F10  0000B825   OR S7, ZERO, ZERO
9D002F14  2416FFFF   ADDIU S6, ZERO, -1
9D002F18  02881021   ADDU V0, S4, T0
9D002F1C  90420000   LBU V0, 0(V0)
9D002F20  005E182B   SLTU V1, V0, FP
9D002F24  1060FF54   BEQ V1, ZERO, 0x9D002C78
9D002F28  8E06004C   LW A2, 76(S0)
9D002F2C  023E0019   MULTU 0, S1, FP
9D002F30  00002012   MFLO A0
9D002F34  12E00009   BEQ S7, ZERO, 0x9D002F5C
9D002F38  00002810   MFHI A1
9D002F3C  03D70019   MULTU 0, FP, S7
9D002F40  00005012   MFLO T2
9D002F44  00AA1821   ADDU V1, A1, T2
9D002F48  006A182B   SLTU V1, V1, T2
9D002F4C  00005810   MFHI T3
9D002F50  006B1821   ADDU V1, V1, T3
9D002F54  5460FF49   BNEL V1, ZERO, 0x9D002C7C
9D002F58  3C149D01   LUI S4, -25343
9D002F5C  00801825   OR V1, A0, ZERO
9D002F60  00A02025   OR A0, A1, ZERO
9D002F64  72FE2802   MUL A1, S7, FP
9D002F68  00A42021   ADDU A0, A1, A0
9D002F6C  14960004   BNE A0, S6, 0x9D002F80
9D002F70  00022827   NOR A1, ZERO, V0
9D002F74  00A3282B   SLTU A1, A1, V1
9D002F78  54A0FF40   BNEL A1, ZERO, 0x9D002C7C
9D002F7C  3C149D01   LUI S4, -25343
9D002F80  00438821   ADDU S1, V0, V1
9D002F84  8E02003C   LW V0, 60(S0)
9D002F88  0223182B   SLTU V1, S1, V1
9D002F8C  0046302B   SLTU A2, V0, A2
9D002F90  10C0000D   BEQ A2, ZERO, 0x9D002FC8
9D002F94  0064B821   ADDU S7, V1, A0
9D002F98  24430001   ADDIU V1, V0, 1
9D002F9C  AE03003C   SW V1, 60(S0)
9D002FA0  1000FFDD   BEQ ZERO, ZERO, 0x9D002F18
9D002FA4  90480000   LBU T0, 0(V0)
9D002FA8  0F403A26   JAL __shgetc
9D002FAC  02002025   OR A0, S0, ZERO
9D002FB0  1000FFCF   BEQ ZERO, ZERO, 0x9D002EF0
9D002FB4  00404025   OR T0, V0, ZERO
9D002FB8  3C16071C   LUI S6, 1820
9D002FBC  00008825   OR S1, ZERO, ZERO
9D002FC0  1000FFCB   BEQ ZERO, ZERO, 0x9D002EF0
9D002FC4  26D671C7   ADDIU S6, S6, 29127
9D002FC8  0F403A26   JAL __shgetc
9D002FCC  02002025   OR A0, S0, ZERO
9D002FD0  1000FFD1   BEQ ZERO, ZERO, 0x9D002F18
9D002FD4  00404025   OR T0, V0, ZERO
9D002FD8  0F403A26   JAL __shgetc
9D002FDC  02002025   OR A0, S0, ZERO
9D002FE0  1000FF34   BEQ ZERO, ZERO, 0x9D002CB4
9D002FE4  02821021   ADDU V0, S4, V0
9D002FE8  14400007   BNE V0, ZERO, 0x9D003008
9D002FEC  3C028000   LUI V0, -32768
9D002FF0  16F2000A   BNE S7, S2, 0x9D00301C
9D002FF4  2402FFFF   ADDIU V0, ZERO, -1
9D002FF8  0271102B   SLTU V0, S3, S1
9D002FFC  10400007   BEQ V0, ZERO, 0x9D00301C
9D003000  2402FFFF   ADDIU V0, ZERO, -1
9D003004  3C028000   LUI V0, -32768
9D003008  24030022   ADDIU V1, ZERO, 34
9D00300C  AC432528   SW V1, 9512(V0)
9D003010  02608825   OR S1, S3, ZERO
9D003014  1000FEB3   BEQ ZERO, ZERO, 0x9D002AE4
9D003018  0240B825   OR S7, S2, ZERO
9D00301C  16A2FEB2   BNE S5, V0, 0x9D002AE8
9D003020  8FBF0044   LW RA, 68(SP)
9D003024  00118823   SUBU S1, ZERO, S1
9D003028  0011102B   SLTU V0, ZERO, S1
9D00302C  00173823   SUBU A3, ZERO, S7
9D003030  1000FEAD   BEQ ZERO, ZERO, 0x9D002AE8
9D003034  00E2B823   SUBU S7, A3, V0
9D003038  5680FEA9   BNEL S4, ZERO, 0x9D002AE0
9D00303C  00008825   OR S1, ZERO, ZERO
9D003040  1000FEC1   BEQ ZERO, ZERO, 0x9D002B48
9D003044  00003025   OR A2, ZERO, ZERO
---  /data01/build/bamboo/xml-data/build-dir/M32DEV-GMB34-JOB1/src/xc32-musl-stdlib/musl/musl-1.1.18/src/ctype/toupper.c
-----*  Optimizer-Generated Procedural Abstractions  *----------------------------------------------
00000000  00000000   NOP
00000008  00000000   NOP
00000010  00000000   NOP
9D01396C  2483FF9F   ADDIU V1, A0, -97
9D013970  2C63001A   SLTIU V1, V1, 26
9D013974  10600002   BEQ V1, ZERO, 0x9D013980
9D013978  00801025   OR V0, A0, ZERO
9D01397C  3082005F   ANDI V0, A0, 95
9D013980  03E00008   JR RA
9D013984  00000000   NOP
---  /data01/build/bamboo/xml-data/build-dir/M32DEV-GMB34-JOB1/src/xc32-musl-stdlib/musl/musl-1.1.18/src/ctype/tolower.c
-----*  Optimizer-Generated Procedural Abstractions  *----------------------------------------------
00000000  00000000   NOP
00000008  00000000   NOP
00000010  00000000   NOP
9D013950  2483FFBF   ADDIU V1, A0, -65
9D013954  2C63001A   SLTIU V1, V1, 26
9D013958  10600002   BEQ V1, ZERO, 0x9D013964
9D01395C  00801025   OR V0, A0, ZERO
9D013960  34820020   ORI V0, A0, 32
9D013964  03E00008   JR RA
9D013968  00000000   NOP
---  /data01/build/bamboo/xml-data/build-dir/M32DEV-GMB34-JOB1/src/xc32-musl-stdlib/musl/musl-1.1.18/include/ctype.h
-----*  Optimizer-Generated Procedural Abstractions  *----------------------------------------------
9D0029C0  1111FFF8   BEQ T0, S1, 0x9D0029A4
9D0029D4  2502FFD5   ADDIU V0, T0, -43
9D011B98  24050020   ADDIU A1, ZERO, 32
9D011B9C  80820000   LB V0, 0(A0)
9D011BA0  1045000E   BEQ V0, A1, 0x9D011BDC
9D011BA4  2443FFF7   ADDIU V1, V0, -9
9D011BA8  2C630005   SLTIU V1, V1, 5
9D011BAC  5460FFFB   BNEL V1, ZERO, 0x9D011B9C
9D011BB0  24840001   ADDIU A0, A0, 1
9D011BB4  2403002B   ADDIU V1, ZERO, 43
---  /data01/build/bamboo/xml-data/build-dir/M32DEV-GMB34-JOB1/src/xc32-musl-stdlib/musl/musl-1.1.18/arch/pic32m/math.h
-----*  Optimizer-Generated Procedural Abstractions  *----------------------------------------------
9D003124  8FA30024   LW V1, 36(SP)
9D0031D4  3C087FF0   LUI T0, 32752
9D0031D8  25030001   ADDIU V1, T0, 1
9D0031DC  0043182B   SLTU V1, V0, V1
9D0031E0  50600006   BEQL V1, ZERO, __fmt_f_needed
9D0031E4  8FA200A4   LW V0, 164(SP)
9D0031E8  1448000F   BNE V0, T0, __fmt_f_needed
9D0031EC  D7A10018   LDC1 F1, 24(SP)
9D0031F0  1080000E   BEQ A0, ZERO, __fmt_f_needed
9D0031F4  3C119D01   LUI S1, -25343
9D004B48  24E7FFBF   ADDIU A3, A3, -65
9D004B4C  01402825   OR A1, T2, ZERO
9D004BF4  3C067FF0   LUI A2, 32752
9D004D48  8FA3001C   LW V1, 28(SP)
---  /data01/build/bamboo/xml-data/build-dir/M32DEV-GMB34-JOB1/src/xc32-musl-stdlib/musl/musl-1.1.18/arch/mchp/atomic.h
-----*  Optimizer-Generated Procedural Abstractions  *----------------------------------------------
00000084  00000000   NOP
9D007F94  3C0C076B   LUI T4, 1899
9D008098  54A00032   BNEL A1, ZERO, first_set
9D0080A0  00032023   SUBU A0, ZERO, V1
9D0080A4  00832024   AND A0, A0, V1
9D0080A8  3582E629   ORI V0, T4, -6615
9D0080AC  70822002   MUL A0, A0, V0
9D0080B0  000426C2   SRL A0, A0, 27
9D0080B4  01042021   ADDU A0, T0, A0
9D0080B8  80860000   LB A2, 0(A0)
9D0080BC  24C60020   ADDIU A2, A2, 32
9D0080C0  0F404C2A   JAL lock_bin
9D0080C4  00C02025   OR A0, A2, ZERO
9D008164  00852024   AND A0, A0, A1
9D008168  3582E629   ORI V0, T4, -6615
9D00816C  70822002   MUL A0, A0, V0
9D008170  000426C2   SRL A0, A0, 27
9D008174  01042021   ADDU A0, T0, A0
9D008178  1000FFD1   BEQ ZERO, ZERO, 0x9D0080C0
9D00817C  80860000   LB A2, 0(A0)
9D00C8B0  A0000000   SB ZERO, 0(ZERO)
9D00C8B8  8E020000   LW V0, 0(S0)
9D00C8BC  8E230004   LW V1, 4(S1)
9D00C8C0  00431024   AND V0, V0, V1
9D00C968  10400004   BEQ V0, ZERO, 0x9D00C97C
9D00C96C  00602825   OR A1, V1, ZERO
9D00C970  8EA41468   LW A0, 5224(S5)
9D00C974  00822025   OR A0, A0, V0
9D00C978  AEA41468   SW A0, 5224(S5)
9D00C97C  50A00005   BEQL A1, ZERO, 0x9D00C994
9D00C980  26730001   ADDIU S3, S3, 1
9D00C984  8E820004   LW V0, 4(S4)
9D00C988  00431025   OR V0, V0, V1
9D00C98C  AE820004   SW V0, 4(S4)
9D00C990  26730001   ADDIU S3, S3, 1
9D010CB4  10400005   BEQ V0, ZERO, unbin
9D010CB8  00022827   NOR A1, ZERO, V0
9D010CBC  3C048000   LUI A0, -32768
9D010CC4  00451024   AND V0, V0, A1
9D010CC8  AC821468   SW V0, 5224(A0)
9D010CCC  2402FFFF   ADDIU V0, ZERO, -1
9D010CD0  10620005   BEQ V1, V0, unbin
9D010CD4  3C028000   LUI V0, -32768
9D010CD8  24421468   ADDIU V0, V0, 5224
9D010CE0  00641824   AND V1, V1, A0
9D010CE4  AC430004   SW V1, 4(V0)
9D010CE8  8E020004   LW V0, 4(S0)
9D011E78  10A00003   BEQ A1, ZERO, a_clz_64
9D011E7C  24030020   ADDIU V1, ZERO, 32
9D011E80  00A02025   OR A0, A1, ZERO
9D011E84  00001825   OR V1, ZERO, ZERO
9D011E88  00042C02   SRL A1, A0, 16
9D011E8C  14A00004   BNE A1, ZERO, a_clz_64
9D011E90  00051202   SRL V0, A1, 8
9D011E94  34630010   ORI V1, V1, 16
9D011E98  00802825   OR A1, A0, ZERO
9D011E9C  00051202   SRL V0, A1, 8
9D011EA0  14400004   BNE V0, ZERO, a_clz_64
9D011EA4  00022102   SRL A0, V0, 4
9D011EA8  34630008   ORI V1, V1, 8
9D011EAC  00A01025   OR V0, A1, ZERO
9D011EB0  00022102   SRL A0, V0, 4
9D011EB4  54800004   BNEL A0, ZERO, a_clz_64
9D011EB8  00041082   SRL V0, A0, 2
9D011EBC  34630004   ORI V1, V1, 4
9D011EC0  00402025   OR A0, V0, ZERO
9D011EC4  00041082   SRL V0, A0, 2
9D011EC8  54400004   BNEL V0, ZERO, a_clz_64
9D011ECC  00021042   SRL V0, V0, 1
9D011ED0  34630002   ORI V1, V1, 2
9D011ED4  00801025   OR V0, A0, ZERO
9D011ED8  00021042   SRL V0, V0, 1
9D011EDC  38420001   XORI V0, V0, 1
9D011EE0  03E00008   JR RA
9D011EE4  00431025   OR V0, V0, V1
---  /data01/build/bamboo/xml-data/build-dir/M32DEV-GMB34-JOB1/src/gcc-8-merge/gcc/libgcc/libgcc2.c  ----
-----*  Optimizer-Generated Procedural Abstractions  *----------------------------------------------
9D005B60  04A10006   BGEZ A1, 0x9D005B7C
9D005B64  00006025   OR T4, ZERO, ZERO
9D005B68  00042023   SUBU A0, ZERO, A0
9D005B6C  0004102B   SLTU V0, ZERO, A0
9D005B70  00052823   SUBU A1, ZERO, A1
9D005B74  00A22823   SUBU A1, A1, V0
9D005B78  240CFFFF   ADDIU T4, ZERO, -1
9D005B7C  04E10006   BGEZ A3, 0x9D005B98
9D005B80  00C04825   OR T1, A2, ZERO
9D005B84  00063023   SUBU A2, ZERO, A2
9D005B88  0006102B   SLTU V0, ZERO, A2
9D005B8C  00073823   SUBU A3, ZERO, A3
9D005B90  00E23823   SUBU A3, A3, V0
9D005B94  00C04825   OR T1, A2, ZERO
9D005B98  00801025   OR V0, A0, ZERO
9D005B9C  14E000A1   BNE A3, ZERO, 0x9D005E24
9D005BA0  00A01825   OR V1, A1, ZERO
9D005BA4  00A6302B   SLTU A2, A1, A2
9D005BA8  10C0003B   BEQ A2, ZERO, 0x9D005C98
9D005BAC  712A5020   CLZ T2, T1
9D005BB0  51400008   BEQL T2, ZERO, 0x9D005BD4
9D005BB4  00092402   SRL A0, T1, 16
9D005BB8  01451804   SLLV V1, A1, T2
9D005BBC  000A2823   SUBU A1, ZERO, T2
9D005BC0  00A42806   SRLV A1, A0, A1
9D005BC4  01494804   SLLV T1, T1, T2
9D005BC8  00A31825   OR V1, A1, V1
9D005BCC  01441004   SLLV V0, A0, T2
9D005BD0  00092402   SRL A0, T1, 16
9D005BD4  0064001B   DIVU V1, A0
9D005BD8  008001F4   TEQ A0, ZERO
9D005BDC  3127FFFF   ANDI A3, T1, -1
9D005BE0  00001812   MFLO V1
9D005BE4  00002810   MFHI A1
9D005BE8  70673002   MUL A2, V1, A3
9D005BEC  00051C00   SLL V1, A1, 16
9D005BF0  00022C02   SRL A1, V0, 16
9D005BF4  00651825   OR V1, V1, A1
9D005BF8  0066282B   SLTU A1, V1, A2
9D005BFC  50A00009   BEQL A1, ZERO, 0x9D005C24
9D005C00  00661823   SUBU V1, V1, A2
9D005C04  00691821   ADDU V1, V1, T1
9D005C08  0069282B   SLTU A1, V1, T1
9D005C0C  54A00005   BNEL A1, ZERO, 0x9D005C24
9D005C10  00661823   SUBU V1, V1, A2
9D005C14  0066282B   SLTU A1, V1, A2
9D005C18  54A00001   BNEL A1, ZERO, 0x9D005C20
9D005C1C  00691821   ADDU V1, V1, T1
9D005C20  00661823   SUBU V1, V1, A2
9D005C24  0064001B   DIVU V1, A0
9D005C28  008001F4   TEQ A0, ZERO
9D005C2C  3042FFFF   ANDI V0, V0, -1
9D005C30  00001812   MFLO V1
9D005C34  00003010   MFHI A2
9D005C38  70672002   MUL A0, V1, A3
9D005C3C  00061C00   SLL V1, A2, 16
9D005C40  00621025   OR V0, V1, V0
9D005C44  0044182B   SLTU V1, V0, A0
9D005C48  50600009   BEQL V1, ZERO, 0x9D005C70
9D005C4C  00441023   SUBU V0, V0, A0
9D005C50  00491021   ADDU V0, V0, T1
9D005C54  0049182B   SLTU V1, V0, T1
9D005C58  54600005   BNEL V1, ZERO, 0x9D005C70
9D005C5C  00441023   SUBU V0, V0, A0
9D005C60  0044182B   SLTU V1, V0, A0
9D005C64  54600001   BNEL V1, ZERO, 0x9D005C6C
9D005C68  00491021   ADDU V0, V0, T1
9D005C6C  00441023   SUBU V0, V0, A0
9D005C70  01421006   SRLV V0, V0, T2
9D005C74  00001825   OR V1, ZERO, ZERO
9D005C78  11800005   BEQ T4, ZERO, 0x9D005C90
9D005C7C  00000000   NOP
9D005C80  00021023   SUBU V0, ZERO, V0
9D005C84  0002202B   SLTU A0, ZERO, V0
9D005C88  00031823   SUBU V1, ZERO, V1
9D005C8C  00641823   SUBU V1, V1, A0
9D005C90  03E00008   JR RA
9D005C94  00000000   NOP
9D005C98  15200006   BNE T1, ZERO, 0x9D005CB4
9D005C9C  00000000   NOP
9D005CA0  24090001   ADDIU T1, ZERO, 1
9D005CA4  0127001B   DIVU T1, A3
9D005CA8  00E001F4   TEQ A3, ZERO
9D005CAC  00004812   MFLO T1
9D005CB0  712A5020   CLZ T2, T1
9D005CB4  1540002B   BNE T2, ZERO, 0x9D005D64
9D005CB8  24070020   ADDIU A3, ZERO, 32
9D005CBC  00A92823   SUBU A1, A1, T1
9D005CC0  00092402   SRL A0, T1, 16
9D005CC4  00A4001B   DIVU A1, A0
9D005CC8  008001F4   TEQ A0, ZERO
9D005CCC  3127FFFF   ANDI A3, T1, -1
9D005CD0  00002812   MFLO A1
9D005CD4  00001810   MFHI V1
9D005CD8  70A73002   MUL A2, A1, A3
9D005CDC  00032C00   SLL A1, V1, 16
9D005CE0  00021C02   SRL V1, V0, 16
9D005CE4  00A32825   OR A1, A1, V1
9D005CE8  00A6182B   SLTU V1, A1, A2
9D005CEC  50600009   BEQL V1, ZERO, 0x9D005D14
9D005CF0  00A63023   SUBU A2, A1, A2
9D005CF4  00A92821   ADDU A1, A1, T1
9D005CF8  00A9182B   SLTU V1, A1, T1
9D005CFC  54600005   BNEL V1, ZERO, 0x9D005D14
9D005D00  00A63023   SUBU A2, A1, A2
9D005D04  00A6182B   SLTU V1, A1, A2
9D005D08  54600001   BNEL V1, ZERO, 0x9D005D10
9D005D0C  00A92821   ADDU A1, A1, T1
9D005D10  00A63023   SUBU A2, A1, A2
9D005D14  00C4001B   DIVU A2, A0
9D005D18  008001F4   TEQ A0, ZERO
9D005D1C  3042FFFF   ANDI V0, V0, -1
9D005D20  00003012   MFLO A2
9D005D24  00002810   MFHI A1
9D005D28  70C71802   MUL V1, A2, A3
9D005D2C  00053400   SLL A2, A1, 16
9D005D30  00C21025   OR V0, A2, V0
9D005D34  0043202B   SLTU A0, V0, V1
9D005D38  5080FFCD   BEQL A0, ZERO, 0x9D005C70
9D005D3C  00431023   SUBU V0, V0, V1
9D005D40  00491021   ADDU V0, V0, T1
9D005D44  0049202B   SLTU A0, V0, T1
9D005D48  5480FFC9   BNEL A0, ZERO, 0x9D005C70
9D005D4C  00431023   SUBU V0, V0, V1
9D005D50  0043202B   SLTU A0, V0, V1
9D005D54  54800001   BNEL A0, ZERO, 0x9D005D5C
9D005D58  00491021   ADDU V0, V0, T1
9D005D5C  1000FFC4   BEQ ZERO, ZERO, 0x9D005C70
9D005D60  00431023   SUBU V0, V0, V1
9D005D64  00EA3823   SUBU A3, A3, T2
9D005D68  01494804   SLLV T1, T1, T2
9D005D6C  00E41806   SRLV V1, A0, A3
9D005D70  00093402   SRL A2, T1, 16
9D005D74  00E53806   SRLV A3, A1, A3
9D005D78  00E6001B   DIVU A3, A2
9D005D7C  00C001F4   TEQ A2, ZERO
9D005D80  01451004   SLLV V0, A1, T2
9D005D84  312BFFFF   ANDI T3, T1, -1
9D005D88  00621825   OR V1, V1, V0
9D005D8C  01441004   SLLV V0, A0, T2
9D005D90  00032C02   SRL A1, V1, 16
9D005D94  00003812   MFLO A3
9D005D98  00002010   MFHI A0
9D005D9C  70EB4002   MUL T0, A3, T3
9D005DA0  00043C00   SLL A3, A0, 16
9D005DA4  00E53825   OR A3, A3, A1
9D005DA8  00E8202B   SLTU A0, A3, T0
9D005DAC  50800009   BEQL A0, ZERO, 0x9D005DD4
9D005DB0  00E83823   SUBU A3, A3, T0
9D005DB4  00E93821   ADDU A3, A3, T1
9D005DB8  00E9202B   SLTU A0, A3, T1
9D005DBC  54800005   BNEL A0, ZERO, 0x9D005DD4
9D005DC0  00E83823   SUBU A3, A3, T0
9D005DC4  00E8202B   SLTU A0, A3, T0
9D005DC8  54800001   BNEL A0, ZERO, 0x9D005DD0
9D005DCC  00E93821   ADDU A3, A3, T1
9D005DD0  00E83823   SUBU A3, A3, T0
9D005DD4  00E6001B   DIVU A3, A2
9D005DD8  00C001F4   TEQ A2, ZERO
9D005DDC  3065FFFF   ANDI A1, V1, -1
9D005DE0  00003012   MFLO A2
9D005DE4  00003810   MFHI A3
9D005DE8  00073C00   SLL A3, A3, 16
9D005DEC  00E52825   OR A1, A3, A1
9D005DF0  70CB3002   MUL A2, A2, T3
9D005DF4  00A6182B   SLTU V1, A1, A2
9D005DF8  5060FFB1   BEQL V1, ZERO, 0x9D005CC0
9D005DFC  00A62823   SUBU A1, A1, A2
9D005E00  00A92821   ADDU A1, A1, T1
9D005E04  00A9182B   SLTU V1, A1, T1
9D005E08  5460FFAD   BNEL V1, ZERO, 0x9D005CC0
9D005E0C  00A62823   SUBU A1, A1, A2
9D005E10  00A6182B   SLTU V1, A1, A2
9D005E14  54600001   BNEL V1, ZERO, 0x9D005E1C
9D005E18  00A92821   ADDU A1, A1, T1
9D005E1C  1000FFA8   BEQ ZERO, ZERO, 0x9D005CC0
9D005E20  00A62823   SUBU A1, A1, A2
9D005E24  00A7402B   SLTU T0, A1, A3
9D005E28  1500FF93   BNE T0, ZERO, 0x9D005C78
9D005E2C  70ED6820   CLZ T5, A3
9D005E30  15A0000C   BNE T5, ZERO, 0x9D005E64
9D005E34  240B0020   ADDIU T3, ZERO, 32
9D005E38  00E5402B   SLTU T0, A3, A1
9D005E3C  55000005   BNEL T0, ZERO, 0x9D005E54
9D005E40  00861023   SUBU V0, A0, A2
9D005E44  0086402B   SLTU T0, A0, A2
9D005E48  1500FF8B   BNE T0, ZERO, 0x9D005C78
9D005E4C  00000000   NOP
9D005E50  00861023   SUBU V0, A0, A2
9D005E54  00A72823   SUBU A1, A1, A3
9D005E58  0082182B   SLTU V1, A0, V0
9D005E5C  1000FF86   BEQ ZERO, ZERO, 0x9D005C78
9D005E60  00A31823   SUBU V1, A1, V1
9D005E64  016D5823   SUBU T3, T3, T5
9D005E68  01664006   SRLV T0, A2, T3
9D005E6C  01A73804   SLLV A3, A3, T5
9D005E70  01073825   OR A3, T0, A3
9D005E74  01A51004   SLLV V0, A1, T5
9D005E78  00074C02   SRL T1, A3, 16
9D005E7C  01652806   SRLV A1, A1, T3
9D005E80  00A9001B   DIVU A1, T1
9D005E84  012001F4   TEQ T1, ZERO
9D005E88  01644006   SRLV T0, A0, T3
9D005E8C  01021025   OR V0, T0, V0
9D005E90  30E8FFFF   ANDI T0, A3, -1
9D005E94  01A6C004   SLLV T8, A2, T5
9D005E98  00023402   SRL A2, V0, 16
9D005E9C  01A42004   SLLV A0, A0, T5
9D005EA0  00002812   MFLO A1
9D005EA4  00005010   MFHI T2
9D005EA8  000A5400   SLL T2, T2, 16
9D005EAC  01465025   OR T2, T2, A2
9D005EB0  71051802   MUL V1, T0, A1
9D005EB4  0143302B   SLTU A2, T2, V1
9D005EB8  10C0000A   BEQ A2, ZERO, 0x9D005EE4
9D005EBC  00A07825   OR T7, A1, ZERO
9D005EC0  01475021   ADDU T2, T2, A3
9D005EC4  0147302B   SLTU A2, T2, A3
9D005EC8  14C00006   BNE A2, ZERO, 0x9D005EE4
9D005ECC  24AFFFFF   ADDIU T7, A1, -1
9D005ED0  0143302B   SLTU A2, T2, V1
9D005ED4  50C00004   BEQL A2, ZERO, 0x9D005EE8
9D005ED8  01435023   SUBU T2, T2, V1
9D005EDC  24AFFFFE   ADDIU T7, A1, -2
9D005EE0  01475021   ADDU T2, T2, A3
9D005EE4  01435023   SUBU T2, T2, V1
9D005EE8  0149001B   DIVU T2, T1
9D005EEC  012001F4   TEQ T1, ZERO
9D005EF0  00004812   MFLO T1
9D005EF4  00005010   MFHI T2
9D005EF8  000A5400   SLL T2, T2, 16
9D005EFC  71091802   MUL V1, T0, T1
9D005F00  3048FFFF   ANDI T0, V0, -1
9D005F04  01484025   OR T0, T2, T0
9D005F08  0103282B   SLTU A1, T0, V1
9D005F0C  10A0000A   BEQ A1, ZERO, 0x9D005F38
9D005F10  01201025   OR V0, T1, ZERO
9D005F14  01074021   ADDU T0, T0, A3
9D005F18  0107282B   SLTU A1, T0, A3
9D005F1C  14A00006   BNE A1, ZERO, 0x9D005F38
9D005F20  2522FFFF   ADDIU V0, T1, -1
9D005F24  0103282B   SLTU A1, T0, V1
9D005F28  10A00004   BEQ A1, ZERO, 0x9D005F3C
9D005F2C  000F7400   SLL T6, T7, 16
9D005F30  2522FFFE   ADDIU V0, T1, -2
9D005F34  01074021   ADDU T0, T0, A3
9D005F38  000F7400   SLL T6, T7, 16
9D005F3C  01C27025   OR T6, T6, V0
9D005F40  01D80019   MULTU 0, T6, T8
9D005F44  01034023   SUBU T0, T0, V1
9D005F48  00007810   MFHI T7
9D005F4C  010F102B   SLTU V0, T0, T7
9D005F50  01E01825   OR V1, T7, ZERO
9D005F54  00007012   MFLO T6
9D005F58  14400006   BNE V0, ZERO, 0x9D005F74
9D005F5C  00003012   MFLO A2
9D005F60  150F0009   BNE T0, T7, 0x9D005F88
9D005F64  00863023   SUBU A2, A0, A2
9D005F68  008E102B   SLTU V0, A0, T6
9D005F6C  50400007   BEQL V0, ZERO, 0x9D005F8C
9D005F70  01034023   SUBU T0, T0, V1
9D005F74  01D83023   SUBU A2, T6, T8
9D005F78  01E73823   SUBU A3, T7, A3
9D005F7C  01C6702B   SLTU T6, T6, A2
9D005F80  00EE1823   SUBU V1, A3, T6
9D005F84  00863023   SUBU A2, A0, A2
9D005F88  01034023   SUBU T0, T0, V1
9D005F8C  0086182B   SLTU V1, A0, A2
9D005F90  01031823   SUBU V1, T0, V1
9D005F94  01631004   SLLV V0, V1, T3
9D005F98  01A63006   SRLV A2, A2, T5
9D005F9C  00461025   OR V0, V0, A2
9D005FA0  1000FF35   BEQ ZERO, ZERO, 0x9D005C78
9D005FA4  01A31806   SRLV V1, V1, T5
9D005FA8  04A10007   BGEZ A1, 0x9D005FC8
9D005FAC  00004825   OR T1, ZERO, ZERO
9D005FB0  00041023   SUBU V0, ZERO, A0
9D005FB4  0002402B   SLTU T0, ZERO, V0
9D005FB8  00052823   SUBU A1, ZERO, A1
9D005FBC  00402025   OR A0, V0, ZERO
9D005FC0  00A82823   SUBU A1, A1, T0
9D005FC4  2409FFFF   ADDIU T1, ZERO, -1
9D005FC8  04E10007   BGEZ A3, 0x9D005FE8
9D005FCC  00C04025   OR T0, A2, ZERO
9D005FD0  00063023   SUBU A2, ZERO, A2
9D005FD4  0006102B   SLTU V0, ZERO, A2
9D005FD8  00073823   SUBU A3, ZERO, A3
9D005FDC  00094827   NOR T1, ZERO, T1
9D005FE0  00E23823   SUBU A3, A3, V0
9D005FE4  00C04025   OR T0, A2, ZERO
9D005FE8  00E01825   OR V1, A3, ZERO
9D005FEC  00805025   OR T2, A0, ZERO
9D005FF0  14E000AA   BNE A3, ZERO, 0x9D00629C
9D005FF4  00A01025   OR V0, A1, ZERO
9D005FF8  00A6302B   SLTU A2, A1, A2
9D005FFC  10C0003B   BEQ A2, ZERO, 0x9D0060EC
9D006000  00000000   NOP
9D006004  71052820   CLZ A1, T0
9D006008  50A00008   BEQL A1, ZERO, 0x9D00602C
9D00600C  00082C02   SRL A1, T0, 16
9D006010  00A22004   SLLV A0, V0, A1
9D006014  00051023   SUBU V0, ZERO, A1
9D006018  004A1006   SRLV V0, T2, V0
9D00601C  00A84004   SLLV T0, T0, A1
9D006020  00441025   OR V0, V0, A0
9D006024  00AA5004   SLLV T2, T2, A1
9D006028  00082C02   SRL A1, T0, 16
9D00602C  0045001B   DIVU V0, A1
9D006030  00A001F4   TEQ A1, ZERO
9D006034  310BFFFF   ANDI T3, T0, -1
9D006038  000A1402   SRL V0, T2, 16
9D00603C  00003812   MFLO A3
9D006040  00002010   MFHI A0
9D006044  00042400   SLL A0, A0, 16
9D006048  00821025   OR V0, A0, V0
9D00604C  71676002   MUL T4, T3, A3
9D006050  004C202B   SLTU A0, V0, T4
9D006054  1080000A   BEQ A0, ZERO, 0x9D006080
9D006058  00E03025   OR A2, A3, ZERO
9D00605C  00481021   ADDU V0, V0, T0
9D006060  0048202B   SLTU A0, V0, T0
9D006064  14800006   BNE A0, ZERO, 0x9D006080
9D006068  24E6FFFF   ADDIU A2, A3, -1
9D00606C  004C202B   SLTU A0, V0, T4
9D006070  50800004   BEQL A0, ZERO, 0x9D006084
9D006074  004C1023   SUBU V0, V0, T4
9D006078  24E6FFFE   ADDIU A2, A3, -2
9D00607C  00481021   ADDU V0, V0, T0
9D006080  004C1023   SUBU V0, V0, T4
9D006084  0045001B   DIVU V0, A1
9D006088  00A001F4   TEQ A1, ZERO
9D00608C  314AFFFF   ANDI T2, T2, -1
9D006090  00001012   MFLO V0
9D006094  00002810   MFHI A1
9D006098  00052C00   SLL A1, A1, 16
9D00609C  00AA5025   OR T2, A1, T2
9D0060A0  71625802   MUL T3, T3, V0
9D0060A4  014B282B   SLTU A1, T2, T3
9D0060A8  10A00006   BEQ A1, ZERO, 0x9D0060C4
9D0060AC  00402025   OR A0, V0, ZERO
9D0060B0  010A5021   ADDU T2, T0, T2
9D0060B4  0148402B   SLTU T0, T2, T0
9D0060B8  2444FFFF   ADDIU A0, V0, -1
9D0060BC  1100003D   BEQ T0, ZERO, 0x9D0061B4
9D0060C0  014B502B   SLTU T2, T2, T3
9D0060C4  00061400   SLL V0, A2, 16
9D0060C8  00441025   OR V0, V0, A0
9D0060CC  11200005   BEQ T1, ZERO, 0x9D0060E4
9D0060D0  00000000   NOP
9D0060D4  00021023   SUBU V0, ZERO, V0
9D0060D8  0002202B   SLTU A0, ZERO, V0
9D0060DC  00031823   SUBU V1, ZERO, V1
9D0060E0  00641823   SUBU V1, V1, A0
9D0060E4  03E00008   JR RA
9D0060E8  00000000   NOP
9D0060EC  15000006   BNE T0, ZERO, 0x9D006108
9D0060F0  71021020   CLZ V0, T0
9D0060F4  24080001   ADDIU T0, ZERO, 1
9D0060F8  0107001B   DIVU T0, A3
9D0060FC  00E001F4   TEQ A3, ZERO
9D006100  00004012   MFLO T0
9D006104  71021020   CLZ V0, T0
9D006108  1440002E   BNE V0, ZERO, 0x9D0061C4
9D00610C  24030020   ADDIU V1, ZERO, 32
9D006110  00A82823   SUBU A1, A1, T0
9D006114  24030001   ADDIU V1, ZERO, 1
9D006118  00083C02   SRL A3, T0, 16
9D00611C  00A7001B   DIVU A1, A3
9D006120  00E001F4   TEQ A3, ZERO
9D006124  310BFFFF   ANDI T3, T0, -1
9D006128  000A1402   SRL V0, T2, 16
9D00612C  00002812   MFLO A1
9D006130  00002010   MFHI A0
9D006134  00042400   SLL A0, A0, 16
9D006138  00821025   OR V0, A0, V0
9D00613C  71656002   MUL T4, T3, A1
9D006140  004C202B   SLTU A0, V0, T4
9D006144  1080000A   BEQ A0, ZERO, 0x9D006170
9D006148  00A03025   OR A2, A1, ZERO
9D00614C  00481021   ADDU V0, V0, T0
9D006150  0048202B   SLTU A0, V0, T0
9D006154  14800006   BNE A0, ZERO, 0x9D006170
9D006158  24A6FFFF   ADDIU A2, A1, -1
9D00615C  004C202B   SLTU A0, V0, T4
9D006160  50800004   BEQL A0, ZERO, 0x9D006174
9D006164  004C1023   SUBU V0, V0, T4
9D006168  24A6FFFE   ADDIU A2, A1, -2
9D00616C  00481021   ADDU V0, V0, T0
9D006170  004C1023   SUBU V0, V0, T4
9D006174  0047001B   DIVU V0, A3
9D006178  00E001F4   TEQ A3, ZERO
9D00617C  314AFFFF   ANDI T2, T2, -1
9D006180  00001012   MFLO V0
9D006184  00003810   MFHI A3
9D006188  00073C00   SLL A3, A3, 16
9D00618C  00EA5025   OR T2, A3, T2
9D006190  71622802   MUL A1, T3, V0
9D006194  0145382B   SLTU A3, T2, A1
9D006198  10E0FFCA   BEQ A3, ZERO, 0x9D0060C4
9D00619C  00402025   OR A0, V0, ZERO
9D0061A0  010A5021   ADDU T2, T0, T2
9D0061A4  0148402B   SLTU T0, T2, T0
9D0061A8  1500FFC6   BNE T0, ZERO, 0x9D0060C4
9D0061AC  2444FFFF   ADDIU A0, V0, -1
9D0061B0  0145502B   SLTU T2, T2, A1
9D0061B4  5540FFC3   BNEL T2, ZERO, 0x9D0060C4
9D0061B8  2444FFFE   ADDIU A0, V0, -2
9D0061BC  1000FFC2   BEQ ZERO, ZERO, 0x9D0060C8
9D0061C0  00061400   SLL V0, A2, 16
9D0061C4  00621823   SUBU V1, V1, V0
9D0061C8  00484004   SLLV T0, T0, V0
9D0061CC  00453004   SLLV A2, A1, V0
9D0061D0  00445004   SLLV T2, A0, V0
9D0061D4  00652806   SRLV A1, A1, V1
9D0061D8  00081402   SRL V0, T0, 16
9D0061DC  00A2001B   DIVU A1, V0
9D0061E0  004001F4   TEQ V0, ZERO
9D0061E4  3107FFFF   ANDI A3, T0, -1
9D0061E8  00645806   SRLV T3, A0, V1
9D0061EC  01665825   OR T3, T3, A2
9D0061F0  000B3402   SRL A2, T3, 16
9D0061F4  00002812   MFLO A1
9D0061F8  00002010   MFHI A0
9D0061FC  00042400   SLL A0, A0, 16
9D006200  00862025   OR A0, A0, A2
9D006204  70E51802   MUL V1, A3, A1
9D006208  0083602B   SLTU T4, A0, V1
9D00620C  1180000A   BEQ T4, ZERO, 0x9D006238
9D006210  00A03025   OR A2, A1, ZERO
9D006214  00882021   ADDU A0, A0, T0
9D006218  0088602B   SLTU T4, A0, T0
9D00621C  15800006   BNE T4, ZERO, 0x9D006238
9D006220  24A6FFFF   ADDIU A2, A1, -1
9D006224  0083602B   SLTU T4, A0, V1
9D006228  51800004   BEQL T4, ZERO, 0x9D00623C
9D00622C  00832023   SUBU A0, A0, V1
9D006230  24A6FFFE   ADDIU A2, A1, -2
9D006234  00882021   ADDU A0, A0, T0
9D006238  00832023   SUBU A0, A0, V1
9D00623C  0082001B   DIVU A0, V0
9D006240  004001F4   TEQ V0, ZERO
9D006244  3165FFFF   ANDI A1, T3, -1
9D006248  00001012   MFLO V0
9D00624C  00002010   MFHI A0
9D006250  00042400   SLL A0, A0, 16
9D006254  00852825   OR A1, A0, A1
9D006258  70E23802   MUL A3, A3, V0
9D00625C  00A7182B   SLTU V1, A1, A3
9D006260  1060000A   BEQ V1, ZERO, 0x9D00628C
9D006264  00402025   OR A0, V0, ZERO
9D006268  00A82821   ADDU A1, A1, T0
9D00626C  00A8182B   SLTU V1, A1, T0
9D006270  14600006   BNE V1, ZERO, 0x9D00628C
9D006274  2444FFFF   ADDIU A0, V0, -1
9D006278  00A7182B   SLTU V1, A1, A3
9D00627C  50600004   BEQL V1, ZERO, 0x9D006290
9D006280  00061C00   SLL V1, A2, 16
9D006284  2444FFFE   ADDIU A0, V0, -2
9D006288  00A82821   ADDU A1, A1, T0
9D00628C  00061C00   SLL V1, A2, 16
9D006290  00A72823   SUBU A1, A1, A3
9D006294  1000FFA0   BEQ ZERO, ZERO, 0x9D006118
9D006298  00641825   OR V1, V1, A0
9D00629C  00A7102B   SLTU V0, A1, A3
9D0062A0  1440004F   BNE V0, ZERO, 0x9D0063E0
9D0062A4  00001825   OR V1, ZERO, ZERO
9D0062A8  70EB5820   CLZ T3, A3
9D0062AC  15600008   BNE T3, ZERO, 0x9D0062D0
9D0062B0  240A0020   ADDIU T2, ZERO, 32
9D0062B4  00E5282B   SLTU A1, A3, A1
9D0062B8  54A0FF84   BNEL A1, ZERO, 0x9D0060CC
9D0062BC  24020001   ADDIU V0, ZERO, 1
9D0062C0  0086102B   SLTU V0, A0, A2
9D0062C4  38420001   XORI V0, V0, 1
9D0062C8  1000FF80   BEQ ZERO, ZERO, 0x9D0060CC
9D0062CC  00001825   OR V1, ZERO, ZERO
9D0062D0  014B5023   SUBU T2, T2, T3
9D0062D4  01461006   SRLV V0, A2, T2
9D0062D8  01673804   SLLV A3, A3, T3
9D0062DC  00473825   OR A3, V0, A3
9D0062E0  00074402   SRL T0, A3, 16
9D0062E4  01651004   SLLV V0, A1, T3
9D0062E8  01452806   SRLV A1, A1, T2
9D0062EC  00A8001B   DIVU A1, T0
9D0062F0  010001F4   TEQ T0, ZERO
9D0062F4  01446806   SRLV T5, A0, T2
9D0062F8  30ECFFFF   ANDI T4, A3, -1
9D0062FC  01A26825   OR T5, T5, V0
9D006300  000D1C02   SRL V1, T5, 16
9D006304  01663004   SLLV A2, A2, T3
9D006308  00002812   MFLO A1
9D00630C  00005010   MFHI T2
9D006310  000A5400   SLL T2, T2, 16
9D006314  01435025   OR T2, T2, V1
9D006318  71851002   MUL V0, T4, A1
9D00631C  0142702B   SLTU T6, T2, V0
9D006320  11C0000A   BEQ T6, ZERO, 0x9D00634C
9D006324  00A01825   OR V1, A1, ZERO
9D006328  01475021   ADDU T2, T2, A3
9D00632C  0147702B   SLTU T6, T2, A3
9D006330  15C00006   BNE T6, ZERO, 0x9D00634C
9D006334  24A3FFFF   ADDIU V1, A1, -1
9D006338  0142702B   SLTU T6, T2, V0
9D00633C  51C00004   BEQL T6, ZERO, 0x9D006350
9D006340  01425023   SUBU T2, T2, V0
9D006344  24A3FFFE   ADDIU V1, A1, -2
9D006348  01475021   ADDU T2, T2, A3
9D00634C  01425023   SUBU T2, T2, V0
9D006350  0148001B   DIVU T2, T0
9D006354  010001F4   TEQ T0, ZERO
9D006358  31A5FFFF   ANDI A1, T5, -1
9D00635C  00004012   MFLO T0
9D006360  00005010   MFHI T2
9D006364  000A5400   SLL T2, T2, 16
9D006368  01452825   OR A1, T2, A1
9D00636C  71886002   MUL T4, T4, T0
9D006370  00AC102B   SLTU V0, A1, T4
9D006374  1040000A   BEQ V0, ZERO, 0x9D0063A0
9D006378  01005025   OR T2, T0, ZERO
9D00637C  00A72821   ADDU A1, A1, A3
9D006380  00A7102B   SLTU V0, A1, A3
9D006384  14400006   BNE V0, ZERO, 0x9D0063A0
9D006388  250AFFFF   ADDIU T2, T0, -1
9D00638C  00AC102B   SLTU V0, A1, T4
9D006390  10400004   BEQ V0, ZERO, 0x9D0063A4
9D006394  00031400   SLL V0, V1, 16
9D006398  250AFFFE   ADDIU T2, T0, -2
9D00639C  00A72821   ADDU A1, A1, A3
9D0063A0  00031400   SLL V0, V1, 16
9D0063A4  004A1025   OR V0, V0, T2
9D0063A8  00460019   MULTU 0, V0, A2
9D0063AC  00AC2823   SUBU A1, A1, T4
9D0063B0  00003810   MFHI A3
9D0063B4  00A7182B   SLTU V1, A1, A3
9D0063B8  14600007   BNE V1, ZERO, 0x9D0063D8
9D0063BC  00003012   MFLO A2
9D0063C0  14A7FF42   BNE A1, A3, 0x9D0060CC
9D0063C4  00001825   OR V1, ZERO, ZERO
9D0063C8  01642004   SLLV A0, A0, T3
9D0063CC  0086202B   SLTU A0, A0, A2
9D0063D0  1080FF3E   BEQ A0, ZERO, 0x9D0060CC
9D0063D4  00000000   NOP
9D0063D8  1000FFBB   BEQ ZERO, ZERO, 0x9D0062C8
9D0063DC  2442FFFF   ADDIU V0, V0, -1
9D0063E0  1000FF3A   BEQ ZERO, ZERO, 0x9D0060CC
9D0063E4  00001025   OR V0, ZERO, ZERO
9D0063E8  27BDFFB0   ADDIU SP, SP, -80
9D0063EC  F7AC0050   SDC1 F12, 80(SP)
9D006814  00C04825   OR T1, A2, ZERO
9D006818  00801025   OR V0, A0, ZERO
9D00681C  14E00099   BNE A3, ZERO, 0x9D006A84
9D006820  00A01825   OR V1, A1, ZERO
9D006824  00A6302B   SLTU A2, A1, A2
9D006828  10C00034   BEQ A2, ZERO, 0x9D0068FC
9D00682C  712A5020   CLZ T2, T1
9D006830  51400008   BEQL T2, ZERO, 0x9D006854
9D006834  00092402   SRL A0, T1, 16
9D006838  01451804   SLLV V1, A1, T2
9D00683C  000A2823   SUBU A1, ZERO, T2
9D006840  00A42806   SRLV A1, A0, A1
9D006844  01494804   SLLV T1, T1, T2
9D006848  00A31825   OR V1, A1, V1
9D00684C  01441004   SLLV V0, A0, T2
9D006850  00092402   SRL A0, T1, 16
9D006854  0064001B   DIVU V1, A0
9D006858  008001F4   TEQ A0, ZERO
9D00685C  3127FFFF   ANDI A3, T1, -1
9D006860  00001812   MFLO V1
9D006864  00002810   MFHI A1
9D006868  70673002   MUL A2, V1, A3
9D00686C  00051C00   SLL V1, A1, 16
9D006870  00022C02   SRL A1, V0, 16
9D006874  00651825   OR V1, V1, A1
9D006878  0066282B   SLTU A1, V1, A2
9D00687C  50A00009   BEQL A1, ZERO, 0x9D0068A4
9D006880  00661823   SUBU V1, V1, A2
9D006884  00691821   ADDU V1, V1, T1
9D006888  0069282B   SLTU A1, V1, T1
9D00688C  54A00005   BNEL A1, ZERO, 0x9D0068A4
9D006890  00661823   SUBU V1, V1, A2
9D006894  0066282B   SLTU A1, V1, A2
9D006898  54A00001   BNEL A1, ZERO, 0x9D0068A0
9D00689C  00691821   ADDU V1, V1, T1
9D0068A0  00661823   SUBU V1, V1, A2
9D0068A4  0064001B   DIVU V1, A0
9D0068A8  008001F4   TEQ A0, ZERO
9D0068AC  3042FFFF   ANDI V0, V0, -1
9D0068B0  00001812   MFLO V1
9D0068B4  00003010   MFHI A2
9D0068B8  70672002   MUL A0, V1, A3
9D0068BC  00061C00   SLL V1, A2, 16
9D0068C0  00621025   OR V0, V1, V0
9D0068C4  0044182B   SLTU V1, V0, A0
9D0068C8  50600009   BEQL V1, ZERO, 0x9D0068F0
9D0068CC  00441023   SUBU V0, V0, A0
9D0068D0  00491021   ADDU V0, V0, T1
9D0068D4  0049182B   SLTU V1, V0, T1
9D0068D8  54600005   BNEL V1, ZERO, 0x9D0068F0
9D0068DC  00441023   SUBU V0, V0, A0
9D0068E0  0044182B   SLTU V1, V0, A0
9D0068E4  54600001   BNEL V1, ZERO, 0x9D0068EC
9D0068E8  00491021   ADDU V0, V0, T1
9D0068EC  00441023   SUBU V0, V0, A0
9D0068F0  01421006   SRLV V0, V0, T2
9D0068F4  03E00008   JR RA
9D0068F8  00001825   OR V1, ZERO, ZERO
9D0068FC  15200005   BNE T1, ZERO, 0x9D006914
9D006900  24030001   ADDIU V1, ZERO, 1
9D006904  0069001B   DIVU V1, T1
9D006908  012001F4   TEQ T1, ZERO
9D00690C  00004812   MFLO T1
9D006910  712A5020   CLZ T2, T1
9D006914  1540002B   BNE T2, ZERO, 0x9D0069C4
9D006918  24070020   ADDIU A3, ZERO, 32
9D00691C  00A92823   SUBU A1, A1, T1
9D006920  00092402   SRL A0, T1, 16
9D006924  00A4001B   DIVU A1, A0
9D006928  008001F4   TEQ A0, ZERO
9D00692C  3127FFFF   ANDI A3, T1, -1
9D006930  00002812   MFLO A1
9D006934  00001810   MFHI V1
9D006938  70A73002   MUL A2, A1, A3
9D00693C  00032C00   SLL A1, V1, 16
9D006940  00021C02   SRL V1, V0, 16
9D006944  00A32825   OR A1, A1, V1
9D006948  00A6182B   SLTU V1, A1, A2
9D00694C  50600009   BEQL V1, ZERO, 0x9D006974
9D006950  00A63023   SUBU A2, A1, A2
9D006954  00A92821   ADDU A1, A1, T1
9D006958  00A9182B   SLTU V1, A1, T1
9D00695C  54600005   BNEL V1, ZERO, 0x9D006974
9D006960  00A63023   SUBU A2, A1, A2
9D006964  00A6182B   SLTU V1, A1, A2
9D006968  54600001   BNEL V1, ZERO, 0x9D006970
9D00696C  00A92821   ADDU A1, A1, T1
9D006970  00A63023   SUBU A2, A1, A2
9D006974  00C4001B   DIVU A2, A0
9D006978  008001F4   TEQ A0, ZERO
9D00697C  3042FFFF   ANDI V0, V0, -1
9D006980  00003012   MFLO A2
9D006984  00002810   MFHI A1
9D006988  70C71802   MUL V1, A2, A3
9D00698C  00053400   SLL A2, A1, 16
9D006990  00C21025   OR V0, A2, V0
9D006994  0043202B   SLTU A0, V0, V1
9D006998  5080FFD5   BEQL A0, ZERO, 0x9D0068F0
9D00699C  00431023   SUBU V0, V0, V1
9D0069A0  00491021   ADDU V0, V0, T1
9D0069A4  0049202B   SLTU A0, V0, T1
9D0069A8  5480FFD1   BNEL A0, ZERO, 0x9D0068F0
9D0069AC  00431023   SUBU V0, V0, V1
9D0069B0  0043202B   SLTU A0, V0, V1
9D0069B4  54800001   BNEL A0, ZERO, 0x9D0069BC
9D0069B8  00491021   ADDU V0, V0, T1
9D0069BC  1000FFCC   BEQ ZERO, ZERO, 0x9D0068F0
9D0069C0  00431023   SUBU V0, V0, V1
9D0069C4  00EA3823   SUBU A3, A3, T2
9D0069C8  01494804   SLLV T1, T1, T2
9D0069CC  00E41806   SRLV V1, A0, A3
9D0069D0  00093402   SRL A2, T1, 16
9D0069D4  00E53806   SRLV A3, A1, A3
9D0069D8  00E6001B   DIVU A3, A2
9D0069DC  00C001F4   TEQ A2, ZERO
9D0069E0  01451004   SLLV V0, A1, T2
9D0069E4  312BFFFF   ANDI T3, T1, -1
9D0069E8  00621825   OR V1, V1, V0
9D0069EC  01441004   SLLV V0, A0, T2
9D0069F0  00032C02   SRL A1, V1, 16
9D0069F4  00003812   MFLO A3
9D0069F8  00002010   MFHI A0
9D0069FC  70EB4002   MUL T0, A3, T3
9D006A00  00043C00   SLL A3, A0, 16
9D006A04  00E53825   OR A3, A3, A1
9D006A08  00E8202B   SLTU A0, A3, T0
9D006A0C  50800009   BEQL A0, ZERO, 0x9D006A34
9D006A10  00E83823   SUBU A3, A3, T0
9D006A14  00E93821   ADDU A3, A3, T1
9D006A18  00E9202B   SLTU A0, A3, T1
9D006A1C  54800005   BNEL A0, ZERO, 0x9D006A34
9D006A20  00E83823   SUBU A3, A3, T0
9D006A24  00E8202B   SLTU A0, A3, T0
9D006A28  54800001   BNEL A0, ZERO, 0x9D006A30
9D006A2C  00E93821   ADDU A3, A3, T1
9D006A30  00E83823   SUBU A3, A3, T0
9D006A34  00E6001B   DIVU A3, A2
9D006A38  00C001F4   TEQ A2, ZERO
9D006A3C  3065FFFF   ANDI A1, V1, -1
9D006A40  00003012   MFLO A2
9D006A44  00003810   MFHI A3
9D006A48  00073C00   SLL A3, A3, 16
9D006A4C  00E52825   OR A1, A3, A1
9D006A50  70CB3002   MUL A2, A2, T3
9D006A54  00A6182B   SLTU V1, A1, A2
9D006A58  5060FFB1   BEQL V1, ZERO, 0x9D006920
9D006A5C  00A62823   SUBU A1, A1, A2
9D006A60  00A92821   ADDU A1, A1, T1
9D006A64  00A9182B   SLTU V1, A1, T1
9D006A68  5460FFAD   BNEL V1, ZERO, 0x9D006920
9D006A6C  00A62823   SUBU A1, A1, A2
9D006A70  00A6182B   SLTU V1, A1, A2
9D006A74  54600001   BNEL V1, ZERO, 0x9D006A7C
9D006A78  00A92821   ADDU A1, A1, T1
9D006A7C  1000FFA8   BEQ ZERO, ZERO, 0x9D006920
9D006A80  00A62823   SUBU A1, A1, A2
9D006A84  00A7402B   SLTU T0, A1, A3
9D006A88  1500005E   BNE T0, ZERO, 0x9D006C04
9D006A8C  70EE7020   CLZ T6, A3
9D006A90  15C0000C   BNE T6, ZERO, 0x9D006AC4
9D006A94  240B0020   ADDIU T3, ZERO, 32
9D006A98  00E5402B   SLTU T0, A3, A1
9D006A9C  55000005   BNEL T0, ZERO, 0x9D006AB4
9D006AA0  00861023   SUBU V0, A0, A2
9D006AA4  0086402B   SLTU T0, A0, A2
9D006AA8  15000056   BNE T0, ZERO, 0x9D006C04
9D006AAC  00000000   NOP
9D006AB0  00861023   SUBU V0, A0, A2
9D006AB4  00A72823   SUBU A1, A1, A3
9D006AB8  0082182B   SLTU V1, A0, V0
9D006ABC  03E00008   JR RA
9D006AC0  00A31823   SUBU V1, A1, V1
9D006AC4  016E5823   SUBU T3, T3, T6
9D006AC8  01666006   SRLV T4, A2, T3
9D006ACC  01C73804   SLLV A3, A3, T6
9D006AD0  01873825   OR A3, T4, A3
9D006AD4  01C51804   SLLV V1, A1, T6
9D006AD8  00074C02   SRL T1, A3, 16
9D006ADC  01652806   SRLV A1, A1, T3
9D006AE0  00A9001B   DIVU A1, T1
9D006AE4  012001F4   TEQ T1, ZERO
9D006AE8  01C61004   SLLV V0, A2, T6
9D006AEC  30E8FFFF   ANDI T0, A3, -1
9D006AF0  01643006   SRLV A2, A0, T3
9D006AF4  00C33025   OR A2, A2, V1
9D006AF8  00066402   SRL T4, A2, 16
9D006AFC  01C42004   SLLV A0, A0, T6
9D006B00  00002812   MFLO A1
9D006B04  00005010   MFHI T2
9D006B08  000A5400   SLL T2, T2, 16
9D006B0C  014C5025   OR T2, T2, T4
9D006B10  71051802   MUL V1, T0, A1
9D006B14  0143602B   SLTU T4, T2, V1
9D006B18  1180000A   BEQ T4, ZERO, 0x9D006B44
9D006B1C  00A06825   OR T5, A1, ZERO
9D006B20  01475021   ADDU T2, T2, A3
9D006B24  0147602B   SLTU T4, T2, A3
9D006B28  15800006   BNE T4, ZERO, 0x9D006B44
9D006B2C  24ADFFFF   ADDIU T5, A1, -1
9D006B30  0143602B   SLTU T4, T2, V1
9D006B34  51800004   BEQL T4, ZERO, 0x9D006B48
9D006B38  01435023   SUBU T2, T2, V1
9D006B3C  24ADFFFE   ADDIU T5, A1, -2
9D006B40  01475021   ADDU T2, T2, A3
9D006B44  01435023   SUBU T2, T2, V1
9D006B48  0149001B   DIVU T2, T1
9D006B4C  012001F4   TEQ T1, ZERO
9D006B50  00004812   MFLO T1
9D006B54  00005010   MFHI T2
9D006B58  000A5400   SLL T2, T2, 16
9D006B5C  71091802   MUL V1, T0, T1
9D006B60  30C8FFFF   ANDI T0, A2, -1
9D006B64  01484025   OR T0, T2, T0
9D006B68  0103302B   SLTU A2, T0, V1
9D006B6C  10C0000A   BEQ A2, ZERO, 0x9D006B98
9D006B70  01202825   OR A1, T1, ZERO
9D006B74  01074021   ADDU T0, T0, A3
9D006B78  0107302B   SLTU A2, T0, A3
9D006B7C  14C00006   BNE A2, ZERO, 0x9D006B98
9D006B80  2525FFFF   ADDIU A1, T1, -1
9D006B84  0103302B   SLTU A2, T0, V1
9D006B88  10C00004   BEQ A2, ZERO, 0x9D006B9C
9D006B8C  000D6400   SLL T4, T5, 16
9D006B90  2525FFFE   ADDIU A1, T1, -2
9D006B94  01074021   ADDU T0, T0, A3
9D006B98  000D6400   SLL T4, T5, 16
9D006B9C  01856025   OR T4, T4, A1
9D006BA0  01820019   MULTU 0, T4, V0
9D006BA4  01034023   SUBU T0, T0, V1
9D006BA8  00006810   MFHI T5
9D006BAC  010D282B   SLTU A1, T0, T5
9D006BB0  01A01825   OR V1, T5, ZERO
9D006BB4  00006012   MFLO T4
9D006BB8  14A00006   BNE A1, ZERO, 0x9D006BD4
9D006BBC  00003012   MFLO A2
9D006BC0  150D0009   BNE T0, T5, 0x9D006BE8
9D006BC4  00863023   SUBU A2, A0, A2
9D006BC8  008C282B   SLTU A1, A0, T4
9D006BCC  50A00007   BEQL A1, ZERO, 0x9D006BEC
9D006BD0  01034023   SUBU T0, T0, V1
9D006BD4  01823023   SUBU A2, T4, V0
9D006BD8  01A73823   SUBU A3, T5, A3
9D006BDC  0186602B   SLTU T4, T4, A2
9D006BE0  00EC1823   SUBU V1, A3, T4
9D006BE4  00863023   SUBU A2, A0, A2
9D006BE8  01034023   SUBU T0, T0, V1
9D006BEC  0086182B   SLTU V1, A0, A2
9D006BF0  01031823   SUBU V1, T0, V1
9D006BF4  01631004   SLLV V0, V1, T3
9D006BF8  01C63006   SRLV A2, A2, T6
9D006BFC  00461025   OR V0, V0, A2
9D006C00  01C31806   SRLV V1, V1, T6
9D006C04  03E00008   JR RA
9D006C08  00000000   NOP
9D006C0C  00C04025   OR T0, A2, ZERO
9D006C10  00E01825   OR V1, A3, ZERO
9D006C14  00805025   OR T2, A0, ZERO
9D006C18  14E000A3   BNE A3, ZERO, 0x9D006EA8
9D006C1C  00A01025   OR V0, A1, ZERO
9D006C20  00A6302B   SLTU A2, A1, A2
9D006C24  10C00034   BEQ A2, ZERO, 0x9D006CF8
9D006C28  00000000   NOP
9D006C2C  71052820   CLZ A1, T0
9D006C30  50A00008   BEQL A1, ZERO, 0x9D006C54
9D006C34  00082C02   SRL A1, T0, 16
9D006C38  00052023   SUBU A0, ZERO, A1
9D006C3C  008A2006   SRLV A0, T2, A0
9D006C40  00A21004   SLLV V0, V0, A1
9D006C44  00A84004   SLLV T0, T0, A1
9D006C48  00821025   OR V0, A0, V0
9D006C4C  00AA5004   SLLV T2, T2, A1
9D006C50  00082C02   SRL A1, T0, 16
9D006C54  0045001B   DIVU V0, A1
9D006C58  00A001F4   TEQ A1, ZERO
9D006C5C  3107FFFF   ANDI A3, T0, -1
9D006C60  000A2402   SRL A0, T2, 16
9D006C64  00003012   MFLO A2
9D006C68  00001010   MFHI V0
9D006C6C  00021400   SLL V0, V0, 16
9D006C70  00442025   OR A0, V0, A0
9D006C74  70E64802   MUL T1, A3, A2
9D006C78  0089582B   SLTU T3, A0, T1
9D006C7C  1160000A   BEQ T3, ZERO, 0x9D006CA8
9D006C80  00C01025   OR V0, A2, ZERO
9D006C84  00882021   ADDU A0, A0, T0
9D006C88  0088582B   SLTU T3, A0, T0
9D006C8C  15600006   BNE T3, ZERO, 0x9D006CA8
9D006C90  24C2FFFF   ADDIU V0, A2, -1
9D006C94  0089582B   SLTU T3, A0, T1
9D006C98  51600004   BEQL T3, ZERO, 0x9D006CAC
9D006C9C  00892023   SUBU A0, A0, T1
9D006CA0  24C2FFFE   ADDIU V0, A2, -2
9D006CA4  00882021   ADDU A0, A0, T0
9D006CA8  00892023   SUBU A0, A0, T1
9D006CAC  0085001B   DIVU A0, A1
9D006CB0  00A001F4   TEQ A1, ZERO
9D006CB4  314AFFFF   ANDI T2, T2, -1
9D006CB8  00002012   MFLO A0
9D006CBC  00002810   MFHI A1
9D006CC0  00052C00   SLL A1, A1, 16
9D006CC4  00AA5025   OR T2, A1, T2
9D006CC8  70E43802   MUL A3, A3, A0
9D006CCC  0147282B   SLTU A1, T2, A3
9D006CD0  10A00006   BEQ A1, ZERO, 0x9D006CEC
9D006CD4  00803025   OR A2, A0, ZERO
9D006CD8  010A5021   ADDU T2, T0, T2
9D006CDC  0148402B   SLTU T0, T2, T0
9D006CE0  2486FFFF   ADDIU A2, A0, -1
9D006CE4  11000036   BEQ T0, ZERO, 0x9D006DC0
9D006CE8  0147502B   SLTU T2, T2, A3
9D006CEC  00021400   SLL V0, V0, 16
9D006CF0  03E00008   JR RA
9D006CF4  00461025   OR V0, V0, A2
9D006CF8  15000006   BNE T0, ZERO, 0x9D006D14
9D006CFC  71021020   CLZ V0, T0
9D006D00  24020001   ADDIU V0, ZERO, 1
9D006D04  0048001B   DIVU V0, T0
9D006D08  010001F4   TEQ T0, ZERO
9D006D0C  00004012   MFLO T0
9D006D10  71021020   CLZ V0, T0
9D006D14  1440002E   BNE V0, ZERO, 0x9D006DD0
9D006D18  24090020   ADDIU T1, ZERO, 32
9D006D1C  00A82823   SUBU A1, A1, T0
9D006D20  24030001   ADDIU V1, ZERO, 1
9D006D24  00083402   SRL A2, T0, 16
9D006D28  00A6001B   DIVU A1, A2
9D006D2C  00C001F4   TEQ A2, ZERO
9D006D30  3107FFFF   ANDI A3, T0, -1
9D006D34  000A2402   SRL A0, T2, 16
9D006D38  00002812   MFLO A1
9D006D3C  00001010   MFHI V0
9D006D40  00021400   SLL V0, V0, 16
9D006D44  00442025   OR A0, V0, A0
9D006D48  70E54802   MUL T1, A3, A1
9D006D4C  0089582B   SLTU T3, A0, T1
9D006D50  1160000A   BEQ T3, ZERO, 0x9D006D7C
9D006D54  00A01025   OR V0, A1, ZERO
9D006D58  00882021   ADDU A0, A0, T0
9D006D5C  0088582B   SLTU T3, A0, T0
9D006D60  15600006   BNE T3, ZERO, 0x9D006D7C
9D006D64  24A2FFFF   ADDIU V0, A1, -1
9D006D68  0089582B   SLTU T3, A0, T1
9D006D6C  51600004   BEQL T3, ZERO, 0x9D006D80
9D006D70  00892023   SUBU A0, A0, T1
9D006D74  24A2FFFE   ADDIU V0, A1, -2
9D006D78  00882021   ADDU A0, A0, T0
9D006D7C  00892023   SUBU A0, A0, T1
9D006D80  0086001B   DIVU A0, A2
9D006D84  00C001F4   TEQ A2, ZERO
9D006D88  314AFFFF   ANDI T2, T2, -1
9D006D8C  00002012   MFLO A0
9D006D90  00003010   MFHI A2
9D006D94  00063400   SLL A2, A2, 16
9D006D98  00CA5025   OR T2, A2, T2
9D006D9C  70E42802   MUL A1, A3, A0
9D006DA0  0145382B   SLTU A3, T2, A1
9D006DA4  10E0FFD1   BEQ A3, ZERO, 0x9D006CEC
9D006DA8  00803025   OR A2, A0, ZERO
9D006DAC  010A5021   ADDU T2, T0, T2
9D006DB0  0148402B   SLTU T0, T2, T0
9D006DB4  1500FFCD   BNE T0, ZERO, 0x9D006CEC
9D006DB8  2486FFFF   ADDIU A2, A0, -1
9D006DBC  0145502B   SLTU T2, T2, A1
9D006DC0  5540FFCA   BNEL T2, ZERO, 0x9D006CEC
9D006DC4  2486FFFE   ADDIU A2, A0, -2
9D006DC8  1000FFC9   BEQ ZERO, ZERO, 0x9D006CF0
9D006DCC  00021400   SLL V0, V0, 16
9D006DD0  01224823   SUBU T1, T1, V0
9D006DD4  00484004   SLLV T0, T0, V0
9D006DD8  00451804   SLLV V1, A1, V0
9D006DDC  00445004   SLLV T2, A0, V0
9D006DE0  01252806   SRLV A1, A1, T1
9D006DE4  00081402   SRL V0, T0, 16
9D006DE8  00A2001B   DIVU A1, V0
9D006DEC  004001F4   TEQ V0, ZERO
9D006DF0  3106FFFF   ANDI A2, T0, -1
9D006DF4  01243806   SRLV A3, A0, T1
9D006DF8  00E33825   OR A3, A3, V1
9D006DFC  00071C02   SRL V1, A3, 16
9D006E00  00002812   MFLO A1
9D006E04  00002010   MFHI A0
9D006E08  00042400   SLL A0, A0, 16
9D006E0C  00832025   OR A0, A0, V1
9D006E10  70C54802   MUL T1, A2, A1
9D006E14  0089582B   SLTU T3, A0, T1
9D006E18  1160000A   BEQ T3, ZERO, 0x9D006E44
9D006E1C  00A01825   OR V1, A1, ZERO
9D006E20  00882021   ADDU A0, A0, T0
9D006E24  0088582B   SLTU T3, A0, T0
9D006E28  15600006   BNE T3, ZERO, 0x9D006E44
9D006E2C  24A3FFFF   ADDIU V1, A1, -1
9D006E30  0089582B   SLTU T3, A0, T1
9D006E34  51600004   BEQL T3, ZERO, 0x9D006E48
9D006E38  00892023   SUBU A0, A0, T1
9D006E3C  24A3FFFE   ADDIU V1, A1, -2
9D006E40  00882021   ADDU A0, A0, T0
9D006E44  00892023   SUBU A0, A0, T1
9D006E48  0082001B   DIVU A0, V0
9D006E4C  004001F4   TEQ V0, ZERO
9D006E50  30E5FFFF   ANDI A1, A3, -1
9D006E54  00001012   MFLO V0
9D006E58  00002010   MFHI A0
9D006E5C  00042400   SLL A0, A0, 16
9D006E60  00852825   OR A1, A0, A1
9D006E64  70C23002   MUL A2, A2, V0
9D006E68  00A6382B   SLTU A3, A1, A2
9D006E6C  10E0000A   BEQ A3, ZERO, 0x9D006E98
9D006E70  00402025   OR A0, V0, ZERO
9D006E74  00A82821   ADDU A1, A1, T0
9D006E78  00A8382B   SLTU A3, A1, T0
9D006E7C  14E00006   BNE A3, ZERO, 0x9D006E98
9D006E80  2444FFFF   ADDIU A0, V0, -1
9D006E84  00A6382B   SLTU A3, A1, A2
9D006E88  50E00004   BEQL A3, ZERO, 0x9D006E9C
9D006E8C  00031C00   SLL V1, V1, 16
9D006E90  2444FFFE   ADDIU A0, V0, -2
9D006E94  00A82821   ADDU A1, A1, T0
9D006E98  00031C00   SLL V1, V1, 16
9D006E9C  00A62823   SUBU A1, A1, A2
9D006EA0  1000FFA0   BEQ ZERO, ZERO, 0x9D006D24
9D006EA4  00641825   OR V1, V1, A0
9D006EA8  00A7102B   SLTU V0, A1, A3
9D006EAC  1440004F   BNE V0, ZERO, 0x9D006FEC
9D006EB0  00001825   OR V1, ZERO, ZERO
9D006EB4  70EA5020   CLZ T2, A3
9D006EB8  15400008   BNE T2, ZERO, 0x9D006EDC
9D006EBC  24090020   ADDIU T1, ZERO, 32
9D006EC0  00E5282B   SLTU A1, A3, A1
9D006EC4  54A0004A   BNEL A1, ZERO, 0x9D006FF0
9D006EC8  24020001   ADDIU V0, ZERO, 1
9D006ECC  0086102B   SLTU V0, A0, A2
9D006ED0  38420001   XORI V0, V0, 1
9D006ED4  03E00008   JR RA
9D006ED8  00001825   OR V1, ZERO, ZERO
9D006EDC  012A4823   SUBU T1, T1, T2
9D006EE0  01261006   SRLV V0, A2, T1
9D006EE4  01473804   SLLV A3, A3, T2
9D006EE8  00473825   OR A3, V0, A3
9D006EEC  00074402   SRL T0, A3, 16
9D006EF0  01451004   SLLV V0, A1, T2
9D006EF4  01252806   SRLV A1, A1, T1
9D006EF8  00A8001B   DIVU A1, T0
9D006EFC  010001F4   TEQ T0, ZERO
9D006F00  01246006   SRLV T4, A0, T1
9D006F04  30EBFFFF   ANDI T3, A3, -1
9D006F08  01826025   OR T4, T4, V0
9D006F0C  000C1C02   SRL V1, T4, 16
9D006F10  01463004   SLLV A2, A2, T2
9D006F14  00002812   MFLO A1
9D006F18  00004810   MFHI T1
9D006F1C  00094C00   SLL T1, T1, 16
9D006F20  01234825   OR T1, T1, V1
9D006F24  71651002   MUL V0, T3, A1
9D006F28  0122682B   SLTU T5, T1, V0
9D006F2C  11A0000A   BEQ T5, ZERO, 0x9D006F58
9D006F30  00A01825   OR V1, A1, ZERO
9D006F34  01274821   ADDU T1, T1, A3
9D006F38  0127682B   SLTU T5, T1, A3
9D006F3C  15A00006   BNE T5, ZERO, 0x9D006F58
9D006F40  24A3FFFF   ADDIU V1, A1, -1
9D006F44  0122682B   SLTU T5, T1, V0
9D006F48  51A00004   BEQL T5, ZERO, 0x9D006F5C
9D006F4C  01224823   SUBU T1, T1, V0
9D006F50  24A3FFFE   ADDIU V1, A1, -2
9D006F54  01274821   ADDU T1, T1, A3
9D006F58  01224823   SUBU T1, T1, V0
9D006F5C  0128001B   DIVU T1, T0
9D006F60  010001F4   TEQ T0, ZERO
9D006F64  3185FFFF   ANDI A1, T4, -1
9D006F68  00004012   MFLO T0
9D006F6C  00004810   MFHI T1
9D006F70  00094C00   SLL T1, T1, 16
9D006F74  01252825   OR A1, T1, A1
9D006F78  71685802   MUL T3, T3, T0
9D006F7C  00AB102B   SLTU V0, A1, T3
9D006F80  1040000A   BEQ V0, ZERO, 0x9D006FAC
9D006F84  01004825   OR T1, T0, ZERO
9D006F88  00A72821   ADDU A1, A1, A3
9D006F8C  00A7102B   SLTU V0, A1, A3
9D006F90  14400006   BNE V0, ZERO, 0x9D006FAC
9D006F94  2509FFFF   ADDIU T1, T0, -1
9D006F98  00AB102B   SLTU V0, A1, T3
9D006F9C  10400004   BEQ V0, ZERO, 0x9D006FB0
9D006FA0  00031400   SLL V0, V1, 16
9D006FA4  2509FFFE   ADDIU T1, T0, -2
9D006FA8  00A72821   ADDU A1, A1, A3
9D006FAC  00031400   SLL V0, V1, 16
9D006FB0  00491025   OR V0, V0, T1
9D006FB4  00460019   MULTU 0, V0, A2
9D006FB8  00AB2823   SUBU A1, A1, T3
9D006FBC  00003810   MFHI A3
9D006FC0  00A7182B   SLTU V1, A1, A3
9D006FC4  14600007   BNE V1, ZERO, 0x9D006FE4
9D006FC8  00003012   MFLO A2
9D006FCC  14A70008   BNE A1, A3, 0x9D006FF0
9D006FD0  00001825   OR V1, ZERO, ZERO
9D006FD4  01442004   SLLV A0, A0, T2
9D006FD8  0086202B   SLTU A0, A0, A2
9D006FDC  10800004   BEQ A0, ZERO, 0x9D006FF0
9D006FE0  00000000   NOP
9D006FE4  1000FFBB   BEQ ZERO, ZERO, 0x9D006ED4
9D006FE8  2442FFFF   ADDIU V0, V0, -1
9D006FEC  00001025   OR V0, ZERO, ZERO
9D006FF0  03E00008   JR RA
9D006FF4  00000000   NOP
9D012E84  10C00008   BEQ A2, ZERO, 0x9D012EA8
9D012E88  00801025   OR V0, A0, ZERO
9D012E8C  24030020   ADDIU V1, ZERO, 32
9D012E90  00661823   SUBU V1, V1, A2
9D012E94  1C600006   BGTZ V1, 0x9D012EB0
9D012E98  00C52006   SRLV A0, A1, A2
9D012E9C  00002025   OR A0, ZERO, ZERO
9D012EA0  00C51006   SRLV V0, A1, A2
9D012EA4  00802825   OR A1, A0, ZERO
9D012EA8  03E00008   JR RA
9D012EAC  00A01825   OR V1, A1, ZERO
9D012EB0  00C21006   SRLV V0, V0, A2
9D012EB4  00652804   SLLV A1, A1, V1
9D012EB8  1000FFFA   BEQ ZERO, ZERO, 0x9D012EA4
9D012EBC  00451025   OR V0, V0, A1
9D012EC0  10C00008   BEQ A2, ZERO, 0x9D012EE4
9D012EC4  00801025   OR V0, A0, ZERO
9D012EC8  24040020   ADDIU A0, ZERO, 32
9D012ECC  00862023   SUBU A0, A0, A2
9D012ED0  5C800006   BGTZL A0, 0x9D012EEC
9D012ED4  00C21804   SLLV V1, V0, A2
9D012ED8  00001825   OR V1, ZERO, ZERO
9D012EDC  00C22804   SLLV A1, V0, A2
9D012EE0  00601025   OR V0, V1, ZERO
9D012EE4  03E00008   JR RA
9D012EE8  00A01825   OR V1, A1, ZERO
9D012EEC  00C52804   SLLV A1, A1, A2
9D012EF0  00821006   SRLV V0, V0, A0
9D012EF4  1000FFFA   BEQ ZERO, ZERO, 0x9D012EE0
9D012EF8  00A22825   OR A1, A1, V0
---  /data01/build/bamboo/xml-data/build-dir/M32DEV-GMB34-JOB1/build-Linux/pic32m-libs/libpic32/stubs/sbrk.c
-----*  Optimizer-Generated Procedural Abstractions  *----------------------------------------------
00000000  00000000   NOP
0000000C  00000000   NOP
00000014  00000000   NOP
0000001C  00000000   NOP
00000028  00000000   NOP
00000038  00000000   NOP
9D00DDA0  27BDFFD8   ADDIU SP, SP, -40
9D00DDA4  AFB40020   SW S4, 32(SP)
9D00DDA8  3C148000   LUI S4, -32768
9D00DDAC  8E822454   LW V0, 9300(S4)
9D00DDB0  AFBF0024   SW RA, 36(SP)
9D00DDB4  AFB3001C   SW S3, 28(SP)
9D00DDB8  AFB20018   SW S2, 24(SP)
9D00DDBC  AFB10014   SW S1, 20(SP)
9D00DDC0  1440002E   BNE V0, ZERO, _sbrk_init
9D00DDC4  AFB00010   SW S0, 16(SP)
9D00DDC8  3C128000   LUI S2, -32768
9D00DDCC  8E51245C   LW S1, 9308(S2)
9D00DDD0  16200003   BNE S1, ZERO, _sbrk_init
9D00DDD4  3C138000   LUI S3, -32768
9D00DDD8  3C118000   LUI S1, -32768
9D00DDDC  26312530   ADDIU S1, S1, 9520
9D00DDE0  8E702458   LW S0, 9304(S3)
9D00DDE4  16000006   BNE S0, ZERO, _sbrk_init
9D00DDE8  00111F82   SRL V1, S1, 30
9D00DDEC  3C108000   LUI S0, -32768
9D00DDF0  3C020000   LUI V0, 0
9D00DDF4  26102530   ADDIU S0, S0, 9520
9D00DDF8  24420400   ADDIU V0, V0, 1024
9D00DDFC  02028021   ADDU S0, S0, V0
9D00DE00  24020002   ADDIU V0, ZERO, 2
9D00DE04  50620001   BEQL V1, V0, _sbrk_init
9D00DE08  7E31E000   EXT S1, S1, 0, 29
9D00DE0C  00101F82   SRL V1, S0, 30
9D00DE10  24020002   ADDIU V0, ZERO, 2
9D00DE14  50620001   BEQL V1, V0, _sbrk_init
9D00DE18  7E10E000   EXT S0, S0, 0, 29
9D00DE1C  0F404D0A   JAL _stub_sbd_memlayout
9D00DE20  00000000   NOP
9D00DE24  8C430000   LW V1, 0(V0)
9D00DE28  8C420004   LW V0, 4(V0)
9D00DE2C  0223202B   SLTU A0, S1, V1
9D00DE30  14800004   BNE A0, ZERO, _sbrk_init
9D00DE34  00621021   ADDU V0, V1, V0
9D00DE38  0222202B   SLTU A0, S1, V0
9D00DE3C  54800029   BNEL A0, ZERO, _sbrk_init::_sbrk_init
9D00DE40  0211182B   SLTU V1, S0, S1
9D00DE44  3C048000   LUI A0, -32768
9D00DE48  24840118   ADDIU A0, A0, 280
9D00DE4C  7C84E000   EXT A0, A0, 0, 29
9D00DE50  0064202B   SLTU A0, V1, A0
9D00DE54  14800009   BNE A0, ZERO, _sbrk_init
9D00DE58  0203202B   SLTU A0, S0, V1
9D00DE5C  14800005   BNE A0, ZERO, _sbrk_init
9D00DE60  0062202B   SLTU A0, V1, V0
9D00DE64  0202202B   SLTU A0, S0, V0
9D00DE68  5480000C   BNEL A0, ZERO, _sbrk_init::_sbrk_init
9D00DE6C  02001025   OR V0, S0, ZERO
9D00DE70  0062202B   SLTU A0, V1, V0
9D00DE74  1480000A   BNE A0, ZERO, _sbrk_init
9D00DE78  3C048000   LUI A0, -32768
9D00DE7C  8FBF0024   LW RA, 36(SP)
9D00DE80  8FB40020   LW S4, 32(SP)
9D00DE84  8FB3001C   LW S3, 28(SP)
9D00DE88  8FB20018   LW S2, 24(SP)
9D00DE8C  8FB10014   LW S1, 20(SP)
9D00DE90  8FB00010   LW S0, 16(SP)
9D00DE94  03E00008   JR RA
9D00DE98  27BD0028   ADDIU SP, SP, 40
9D00DE9C  3C048000   LUI A0, -32768
9D00DEA0  24840118   ADDIU A0, A0, 280
9D00DEA4  00042742   SRL A0, A0, 29
9D00DEA8  24050005   ADDIU A1, ZERO, 5
9D00DEAC  14850009   BNE A0, A1, _sbrk_init::_sbrk_init
9D00DEB0  24050004   ADDIU A1, ZERO, 4
9D00DEB4  3C04A000   LUI A0, -24576
9D00DEB8  00641825   OR V1, V1, A0
9D00DEBC  00441025   OR V0, V0, A0
9D00DEC0  AE43245C   SW V1, 9308(S2)
9D00DEC4  AE622458   SW V0, 9304(S3)
9D00DEC8  8E42245C   LW V0, 9308(S2)
9D00DECC  1000FFEB   BEQ ZERO, ZERO, _sbrk_init
9D00DED0  AE822454   SW V0, 9300(S4)
9D00DED4  5485FFFC   BNEL A0, A1, _sbrk_init
9D00DED8  AE42245C   SW V0, 9308(S2)
9D00DEDC  1000FFF6   BEQ ZERO, ZERO, _sbrk_init
9D00DEE0  3C048000   LUI A0, -32768
9D00DEE4  1460FFED   BNE V1, ZERO, _sbrk_init::_sbrk_init
9D00DEE8  02201825   OR V1, S1, ZERO
9D00DEEC  1000FFDE   BEQ ZERO, ZERO, _sbrk_init
9D00DEF0  0202202B   SLTU A0, S0, V0
9D010B20  27BDFFE0   ADDIU SP, SP, -32
9D010B24  AFB00014   SW S0, 20(SP)
9D010B28  3C108000   LUI S0, -32768
9D010B2C  8E022454   LW V0, 9300(S0)
9D010B30  AFB10018   SW S1, 24(SP)
9D010B34  AFBF001C   SW RA, 28(SP)
9D010B38  1440000F   BNE V0, ZERO, 0x9D010B78
9D010B3C  00808825   OR S1, A0, ZERO
9D010B40  0F403768   JAL _sbrk_init
9D010B44  00000000   NOP
9D010B48  8E022454   LW V0, 9300(S0)
9D010B4C  1440000B   BNE V0, ZERO, 0x9D010B7C
9D010B50  00000000   NOP
9D010B54  3C028000   LUI V0, -32768
9D010B58  2403000C   ADDIU V1, ZERO, 12
9D010B5C  AC432528   SW V1, 9512(V0)
9D010B60  2402FFFF   ADDIU V0, ZERO, -1
9D010B64  8FBF001C   LW RA, 28(SP)
9D010B68  8FB10018   LW S1, 24(SP)
9D010B6C  8FB00014   LW S0, 20(SP)
9D010B70  03E00008   JR RA
9D010B74  27BD0020   ADDIU SP, SP, 32
9D010B78  8E022454   LW V0, 9300(S0)
9D010B7C  1A20000A   BLEZ S1, 0x9D010BA8
9D010B80  00511821   ADDU V1, V0, S1
9D010B84  0062202B   SLTU A0, V1, V0
9D010B88  1480FFF2   BNE A0, ZERO, 0x9D010B54
9D010B8C  3C048000   LUI A0, -32768
9D010B90  8C842458   LW A0, 9304(A0)
9D010B94  0083202B   SLTU A0, A0, V1
9D010B98  5480FFEF   BNEL A0, ZERO, 0x9D010B58
9D010B9C  3C028000   LUI V0, -32768
9D010BA0  1000FFF0   BEQ ZERO, ZERO, 0x9D010B64
9D010BA4  AE032454   SW V1, 9300(S0)
9D010BA8  0043202B   SLTU A0, V0, V1
9D010BAC  14800005   BNE A0, ZERO, 0x9D010BC4
9D010BB0  3C048000   LUI A0, -32768
9D010BB4  8C84245C   LW A0, 9308(A0)
9D010BB8  0064202B   SLTU A0, V1, A0
9D010BBC  5080FFE9   BEQL A0, ZERO, 0x9D010B64
9D010BC0  AE032454   SW V1, 9300(S0)
9D010BC4  3C028000   LUI V0, -32768
9D010BC8  1000FFE4   BEQ ZERO, ZERO, 0x9D010B5C
9D010BCC  24030016   ADDIU V1, ZERO, 22
9D013428  3C048000   LUI A0, -32768
9D013438  3C038000   LUI V1, -32768
9D01343C  24632530   ADDIU V1, V1, 9520
9D013440  AC83243C   SW V1, 9276(A0)
9D013444  3C030000   LUI V1, 0
9D013448  24630400   ADDIU V1, V1, 1024
9D01344C  03E00008   JR RA
9D013450  AC430004   SW V1, 4(V0)
---  /data01/build/bamboo/xml-data/build-dir/M32DEV-GMB34-JOB1/build-Linux/pic32m-libs/libpic32/stubs/default-on-reset.c
-----*  Optimizer-Generated Procedural Abstractions  *----------------------------------------------
9D013DC4  03E00008   JR RA
9D013DC8  00000000   NOP
---  /data01/build/bamboo/xml-data/build-dir/M32DEV-GMB34-JOB1/build-Linux/pic32m-libs/libpic32/stubs/default-on-bootstrap.c
-----*  Optimizer-Generated Procedural Abstractions  *----------------------------------------------
9D013DCC  03E00008   JR RA
9D013DD0  00000000   NOP
---  /data01/build/bamboo/xml-data/build-dir/M32DEV-GMB34-JOB1/build-Linux/pic32m-libs/libpic32/default_vector_dispatch/defaultinterrupt.c
-----*  Optimizer-Generated Procedural Abstractions  *----------------------------------------------
9D0002D8  3C020000   LUI V0, 0
9D0002DC  24420000   ADDIU V0, V0, 0
9D0002E0  10400007   BEQ V0, ZERO, 0x9D000300
9D0002E4  3C020000   LUI V0, 0
9D0002E8  24420000   ADDIU V0, V0, 0
9D0002EC  50400005   BEQL V0, ZERO, 0x9D000304
9D0002F0  3C029D01   LUI V0, -25343
9D0002F4  7000003F   SDBBP 0
9D0002F8  03E00008   JR RA
9D0002FC  00000000   NOP
9D000300  3C029D01   LUI V0, -25343
9D000304  24422AD0   ADDIU V0, V0, 10960
9D000308  10400003   BEQ V0, ZERO, 0x9D000318
9D00030C  00000000   NOP
9D000310  0040F809   JALR V0
9D000314  00000000   NOP
9D000318  03E00008   JR RA
9D00031C  00000000   NOP
